
 Start  Stop   Length Name               Class

 00000H 0839CH 0839DH _TEXT              CODE
 0839DH 098FDH 01561H SINTEZER_TEXT      CODE
 098FEH 0A1AAH 008ADH DRAWCLK_TEXT       CODE
 0A1ABH 0AA4FH 008A5H TETSTART_TEXT      CODE
 0AA50H 0AB54H 00105H BMPVIEW_TEXT       CODE
 0AB55H 0AF2FH 003DBH FONTEDIT_TEXT      CODE
 0AF30H 0B652H 00723H TET_SETT_TEXT      CODE
 0B653H 0BA3FH 003EDH FIGURE_TEXT        CODE
 0BA40H 0BE19H 003DAH GRAPH_TEXT         CODE
 0BE1AH 0C698H 0087FH GLASS_TEXT         CODE
 0C699H 0C913H 0027BH SETTINGS_TEXT      CODE
 0C914H 0D266H 00953H RECTABLE_TEXT      CODE
 0D267H 0D804H 0059EH KEYBOARD_TEXT      CODE
 0D805H 102B5H 02AB1H SCREEN_TEXT        CODE
 102B6H 10A26H 00771H DEBUG_TEXT         CODE
 10A27H 10C2DH 00207H MOUSE_TEXT         CODE
 10C2EH 1100DH 003E0H TIMER_TEXT         CODE
 1100EH 12890H 01883H MOVEOBJ_TEXT       CODE
 12891H 12C9DH 0040DH RECTS_TEXT         CODE
 12C9EH 13285H 005E8H SOUND_TEXT         CODE
 13286H 13D2BH 00AA6H SPRITE_TEXT        CODE
 13D2CH 14046H 0031BH LOADER_TEXT        CODE
 14047H 140A9H 00063H MEMORY_TEXT        CODE
 140AAH 15AADH 01A04H DRAWRUNL_TEXT      CODE
 15AAEH 16291H 007E4H TETRIS3_TEXT       CODE
 16292H 1631DH 0008CH TETR_HLP_TEXT      CODE
 1631EH 16D4BH 00A2EH TEXTED2_TEXT       CODE
 16D4CH 185EDH 018A2H TXTEDITR_TEXT      CODE
 185EEH 1AE7CH 0288FH TETRIS_TEXT        CODE
 1AE80H 1B447H 005C8H E87_PROG           CODE
 1B450H 1B450H 00000H _FARDATA           FAR_DATA
 1B450H 1D199H 01D4AH SINTEZER_DATA      FAR_DATA
 1D19AH 1D24AH 000B1H DRAWCLK_DATA       FAR_DATA
 1D24CH 1D7D6H 0058BH TETSTART_DATA      FAR_DATA
 1D7D8H 1D7D8H 00000H BMPVIEW_DATA       FAR_DATA
 1D7D8H 1D818H 00041H FONTEDIT_DATA      FAR_DATA
 1D81AH 1D962H 00149H TET_SETT_DATA      FAR_DATA
 1D964H 1D983H 00020H FIGURE_DATA        FAR_DATA
 1D984H 1DAC4H 00141H GRAPH_DATA         FAR_DATA
 1DAC6H 1DADFH 0001AH GLASS_DATA         FAR_DATA
 1DAE0H 1DB05H 00026H SETTINGS_DATA      FAR_DATA
 1DB06H 1DBACH 000A7H RECTABLE_DATA      FAR_DATA
 1DBAEH 1DF0FH 00362H KEYBOARD_DATA      FAR_DATA
 1DF10H 1DF15H 00006H KEYBOARD5_DATA     FAR_DATA
 1DF20H 1E0DFH 001C0H KEYBOARD6_DATA     FAR_DATA
 1E0E0H 1EA70H 00991H SCREEN_DATA        FAR_DATA
 1EA80H 1EA8AH 0000BH SCREEN5_DATA       FAR_DATA
 1EA8CH 1EABFH 00034H DEBUG_DATA         FAR_DATA
 1EAC0H 1EAFFH 00040H MOUSE_DATA         FAR_DATA
 1EB00H 1EB92H 00093H TIMER_DATA         FAR_DATA
 1EBA0H 1EBA9H 0000AH TIMER5_DATA        FAR_DATA
 1EBAAH 1EF9DH 003F4H MOVEOBJ_DATA       FAR_DATA
 1EFA0H 1EFB3H 00014H MOVEOBJ5_DATA      FAR_DATA
 1EFB4H 1F013H 00060H RECTS_DATA         FAR_DATA
 1F014H 2052CH 01519H SOUND_DATA         FAR_DATA
 20530H 20531H 00002H SOUND5_DATA        FAR_DATA
 20532H 20868H 00337H SPRITE_DATA        FAR_DATA
 20870H 20871H 00002H SPRITE5_DATA       FAR_DATA
 20872H 2088FH 0001EH LOADER_DATA        FAR_DATA
 20890H 20890H 00000H MEMORY_DATA        FAR_DATA
 20890H 2159AH 00D0BH DRAWRUNL_DATA      FAR_DATA
 2159CH 2168AH 000EFH TETRIS3_DATA       FAR_DATA
 2168CH 217E9H 0015EH TETR_HLP_DATA      FAR_DATA
 217EAH 21B4EH 00365H TEXTED2_DATA       FAR_DATA
 21B50H 22164H 00615H TXTEDITR_DATA      FAR_DATA
 22166H 22D45H 00BE0H TETRIS_DATA        FAR_DATA
 22D46H 22D69H 00024H HUGEVAL_DATA       FAR_DATA
 22D6AH 22D6AH 00000H LDTRUNC_DATA       FAR_DATA
 22D6AH 22DACH 00043H MATHWHY_DATA       FAR_DATA
 22DAEH 22DAEH 00000H REALCVT_DATA       FAR_DATA
 22DAEH 22DC5H 00018H SCANTOD_DATA       FAR_DATA
 22DC6H 22DC6H 00000H XCVT_DATA          FAR_DATA
 22DC6H 22E5FH 0009AH FPERR_DATA         FAR_DATA
 22E60H 22EDFH 00080H _POW10_DATA        FAR_DATA
 22EE0H 22EE0H 00000H POW10D_DATA        FAR_DATA
 22EE0H 22EE0H 00000H MATHERR_DATA       FAR_DATA
 22EE0H 22EECH 0000DH SQRT_DATA          FAR_DATA
 22EEEH 22EFDH 00010H POW_DATA           FAR_DATA
 22EFEH 22F09H 0000CH SIN_DATA           FAR_DATA
 22F0AH 22F17H 0000EH _MATHERR_DATA      FAR_DATA
 22F18H 22F23H 0000CH COS_DATA           FAR_DATA
 22F30H 22F31H 00002H FSBDTR5_DATA       FAR_DATA
 22F40H 22F55H 00016H STDTR5_DATA        FAR_DATA
 22F60H 22F60H 00000H _FARBSS            FAR_BSS
 22F60H 22F60H 00000H _OVERLAY_          OVRINFO
 22F60H 22F60H 00000H _1STUB_            STUBSEG
 22F60H 234F1H 00592H _DATA              DATA
 234F2H 234F5H 00004H _CVTSEG            DATA
 234F6H 23501H 0000CH _SCNSEG            DATA
 23502H 23502H 00000H _CONST             CONST
 23502H 23555H 00054H _INIT_             INITDATA
 23556H 23556H 00000H _INITEND_          INITDATA
 23556H 2357FH 0002AH _EXIT_             EXITDATA
 23580H 23580H 00000H _EXITEND_          EXITDATA
 23580H 2368FH 00110H _STACK             STACK


Detailed map of segments

 0000:0000 0288 C=CODE   S=_TEXT          G=(none)  M=C0.ASM     ACBP=28
 0000:0288 0270 C=CODE   S=_TEXT          G=(none)  M=..\DIGMID.LIB\DIGPLAY.ASM ACBP=28
 0000:04F8 0626 C=CODE   S=_TEXT          G=(none)  M=..\DIGMID.LIB\DOSCALLS.ASM ACBP=28
 0000:0B1E 01A5 C=CODE   S=_TEXT          G=(none)  M=..\DIGMID.LIB\MIDPAK.ASM ACBP=28
 0000:0CC3 020E C=CODE   S=_TEXT          G=(none)  M=FP87INIT   ACBP=28
 0000:0ED1 0000 C=CODE   S=_TEXT          G=(none)  M=E87TRAP    ACBP=28
 0000:0ED1 0000 C=CODE   S=_TEXT          G=(none)  M=PROTFLAG   ACBP=28
 0000:0ED1 0000 C=CODE   S=_TEXT          G=(none)  M=DEFLT87    ACBP=28
 0000:0ED1 0000 C=CODE   S=_TEXT          G=(none)  M=HUGEVAL    ACBP=28
 0000:0ED1 00A7 C=CODE   S=_TEXT          G=(none)  M=LDTRUNC    ACBP=28
 0000:0F78 0000 C=CODE   S=_TEXT          G=(none)  M=MATHWHY    ACBP=28
 0000:0F78 01D2 C=CODE   S=_TEXT          G=(none)  M=REALCVT    ACBP=28
 0000:114A 03BD C=CODE   S=_TEXT          G=(none)  M=SCANTOD    ACBP=28
 0000:1507 0213 C=CODE   S=_TEXT          G=(none)  M=XCVT       ACBP=28
 0000:171A 00D4 C=CODE   S=_TEXT          G=(none)  M=FPERR      ACBP=28
 0000:17EE 00D5 C=CODE   S=_TEXT          G=(none)  M=_POW10     ACBP=28
 0000:18C3 0012 C=CODE   S=_TEXT          G=(none)  M=POW10D     ACBP=28
 0000:18D5 0031 C=CODE   S=_TEXT          G=(none)  M=MATHERR    ACBP=28
 0000:1906 004B C=CODE   S=_TEXT          G=(none)  M=SQRT       ACBP=28
 0000:1951 0216 C=CODE   S=_TEXT          G=(none)  M=POW        ACBP=28
 0000:1B67 005F C=CODE   S=_TEXT          G=(none)  M=SIN        ACBP=28
 0000:1BC6 00C0 C=CODE   S=_TEXT          G=(none)  M=_MATHERR   ACBP=28
 0000:1C86 005F C=CODE   S=_TEXT          G=(none)  M=COS        ACBP=28
 0000:1CE5 002C C=CODE   S=_TEXT          G=(none)  M=FFTOL      ACBP=28
 0000:1D11 0034 C=CODE   S=_TEXT          G=(none)  M=ATEXIT     ACBP=28
 0000:1D45 0000 C=CODE   S=_TEXT          G=(none)  M=CTYPE      ACBP=28
 0000:1D45 0019 C=CODE   S=_TEXT          G=(none)  M=DEL        ACBP=28
 0000:1D5E 004B C=CODE   S=_TEXT          G=(none)  M=DOSFATTR   ACBP=28
 0000:1DA9 002E C=CODE   S=_TEXT          G=(none)  M=DOSVECT    ACBP=28
 0000:1DD7 00D0 C=CODE   S=_TEXT          G=(none)  M=EXIT       ACBP=28
 0000:1EA7 0034 C=CODE   S=_TEXT          G=(none)  M=FGETPOS    ACBP=28
 0000:1EDB 0000 C=CODE   S=_TEXT          G=(none)  M=FILES      ACBP=28
 0000:1EDB 0000 C=CODE   S=_TEXT          G=(none)  M=FILES2     ACBP=28
 0000:1EDB 0000 C=CODE   S=_TEXT          G=(none)  M=FMODE      ACBP=28
 0000:1EDB 0000 C=CODE   S=_TEXT          G=(none)  M=FPSTKLEN   ACBP=28
 0000:1EDB 001C C=CODE   S=_TEXT          G=(none)  M=F_SCOPY    ACBP=28
 0000:1EF7 0034 C=CODE   S=_TEXT          G=(none)  M=GETDATE    ACBP=28
 0000:1F2B 002E C=CODE   S=_TEXT          G=(none)  M=GETVECT    ACBP=28
 0000:1F59 00AE C=CODE   S=_TEXT          G=(none)  M=H_LDIV     ACBP=28
 0000:2007 0021 C=CODE   S=_TEXT          G=(none)  M=H_LLSH     ACBP=28
 0000:2028 0060 C=CODE   S=_TEXT          G=(none)  M=H_PADD     ACBP=28
 0000:2088 005F C=CODE   S=_TEXT          G=(none)  M=IOERROR    ACBP=28
 0000:20E7 0018 C=CODE   S=_TEXT          G=(none)  M=ISATTY     ACBP=28
 0000:20FF 00B0 C=CODE   S=_TEXT          G=(none)  M=LONGTOA    ACBP=28
 0000:21AF 0036 C=CODE   S=_TEXT          G=(none)  M=LSEEK      ACBP=28
 0000:21E5 00C4 C=CODE   S=_TEXT          G=(none)  M=MKNAME     ACBP=28
 0000:22A9 007A C=CODE   S=_TEXT          G=(none)  M=NEW        ACBP=28
 0000:2323 0065 C=CODE   S=_TEXT          G=(none)  M=NEWF       ACBP=28
 0000:2388 0017 C=CODE   S=_TEXT          G=(none)  M=N_LXMUL    ACBP=28
 0000:239F 0021 C=CODE   S=_TEXT          G=(none)  M=N_PCMP     ACBP=28
 0000:23C0 0045 C=CODE   S=_TEXT          G=(none)  M=RAND       ACBP=28
 0000:2405 003C C=CODE   S=_TEXT          G=(none)  M=READA      ACBP=28
 0000:2441 0038 C=CODE   S=_TEXT          G=(none)  M=SETDATE    ACBP=28
 0000:2479 00FF C=CODE   S=_TEXT          G=(none)  M=SETUPIO    ACBP=28
 0000:2578 0000 C=CODE   S=_TEXT          G=(none)  M=SIGDATA    ACBP=28
 0000:2578 00A6 C=CODE   S=_TEXT          G=(none)  M=STIME      ACBP=28
 0000:261E 0000 C=CODE   S=_TEXT          G=(none)  M=STKLEN     ACBP=28
 0000:261E 001F C=CODE   S=_TEXT          G=(none)  M=UNLINK     ACBP=28
 0000:263D 0284 C=CODE   S=_TEXT          G=(none)  M=VDELF      ACBP=28
 0000:28C1 029F C=CODE   S=_TEXT          G=(none)  M=VNEWF      ACBP=28
 0000:2B60 04D0 C=CODE   S=_TEXT          G=(none)  M=VPRINTER   ACBP=28
 0000:3030 00C5 C=CODE   S=_TEXT          G=(none)  M=VRAM       ACBP=28
 0000:30F5 0000 C=CODE   S=_TEXT          G=(none)  M=WSCROLL    ACBP=28
 0000:30F5 003B C=CODE   S=_TEXT          G=(none)  M=_STPCPY    ACBP=28
 0000:3130 01B5 C=CODE   S=_TEXT          G=(none)  M=CPRINTF    ACBP=28
 0000:32E5 01CA C=CODE   S=_TEXT          G=(none)  M=CRTINIT    ACBP=28
 0000:34AF 0024 C=CODE   S=_TEXT          G=(none)  M=CVTFAK     ACBP=28
 0000:34D3 0432 C=CODE   S=_TEXT          G=(none)  M=FARHEAP    ACBP=28
 0000:3905 01BF C=CODE   S=_TEXT          G=(none)  M=FBRK       ACBP=28
 0000:3AC4 00A1 C=CODE   S=_TEXT          G=(none)  M=GETCH      ACBP=28
 0000:3B65 00BA C=CODE   S=_TEXT          G=(none)  M=GPTEXT     ACBP=28
 0000:3C1F 0030 C=CODE   S=_TEXT          G=(none)  M=IOCTL      ACBP=28
 0000:3C4F 0019 C=CODE   S=_TEXT          G=(none)  M=KBHIT      ACBP=28
 0000:3C68 00A4 C=CODE   S=_TEXT          G=(none)  M=MOVETEXT   ACBP=28
 0000:3D0C 001E C=CODE   S=_TEXT          G=(none)  M=PUTCH      ACBP=28
 0000:3D2A 000A C=CODE   S=_TEXT          G=(none)  M=REALCVT    ACBP=28
 0000:3D34 021E C=CODE   S=_TEXT          G=(none)  M=SCREEN     ACBP=28
 0000:3F52 01B4 C=CODE   S=_TEXT          G=(none)  M=SCROLL     ACBP=28
 0000:4106 0023 C=CODE   S=_TEXT          G=(none)  M=SETBLOCK   ACBP=28
 0000:4129 0058 C=CODE   S=_TEXT          G=(none)  M=SETENVP    ACBP=28
 0000:4181 0024 C=CODE   S=_TEXT          G=(none)  M=STACK      ACBP=28
 0000:41A5 004D C=CODE   S=_TEXT          G=(none)  M=WHEREXY    ACBP=28
 0000:41F2 0099 C=CODE   S=_TEXT          G=(none)  M=ATOL       ACBP=28
 0000:428B 0024 C=CODE   S=_TEXT          G=(none)  M=CHMODA     ACBP=28
 0000:42AF 003B C=CODE   S=_TEXT          G=(none)  M=CLOSE      ACBP=28
 0000:42EA 002B C=CODE   S=_TEXT          G=(none)  M=CLOSEA     ACBP=28
 0000:4315 0089 C=CODE   S=_TEXT          G=(none)  M=EOF        ACBP=28
 0000:439E 00BF C=CODE   S=_TEXT          G=(none)  M=FCLOSE     ACBP=28
 0000:445D 00D4 C=CODE   S=_TEXT          G=(none)  M=FFLUSH     ACBP=28
 0000:4531 0051 C=CODE   S=_TEXT          G=(none)  M=FLUSHALL   ACBP=28
 0000:4582 023E C=CODE   S=_TEXT          G=(none)  M=FOPEN      ACBP=28
 0000:47C0 0023 C=CODE   S=_TEXT          G=(none)  M=FPRINTF    ACBP=28
 0000:47E3 0190 C=CODE   S=_TEXT          G=(none)  M=FREAD      ACBP=28
 0000:4973 01FD C=CODE   S=_TEXT          G=(none)  M=FSEEK      ACBP=28
 0000:4B70 01F0 C=CODE   S=_TEXT          G=(none)  M=GETC       ACBP=28
 0000:4D60 007C C=CODE   S=_TEXT          G=(none)  M=GETENV     ACBP=28
 0000:4DDC 0027 C=CODE   S=_TEXT          G=(none)  M=MEMCPY     ACBP=28
 0000:4E03 0051 C=CODE   S=_TEXT          G=(none)  M=MEMSET     ACBP=28
 0000:4E54 01CC C=CODE   S=_TEXT          G=(none)  M=OPEN       ACBP=28
 0000:5020 005C C=CODE   S=_TEXT          G=(none)  M=OPENA      ACBP=28
 0000:507C 03F9 C=CODE   S=_TEXT          G=(none)  M=PUTC       ACBP=28
 0000:5475 00EF C=CODE   S=_TEXT          G=(none)  M=READ       ACBP=28
 0000:5564 0003 C=CODE   S=_TEXT          G=(none)  M=READU      ACBP=28
 0000:5567 012B C=CODE   S=_TEXT          G=(none)  M=SETVBUF    ACBP=28
 0000:5692 0098 C=CODE   S=_TEXT          G=(none)  M=SPRINTF    ACBP=28
 0000:572A 0044 C=CODE   S=_TEXT          G=(none)  M=STRCAT     ACBP=28
 0000:576E 002E C=CODE   S=_TEXT          G=(none)  M=STRCPY     ACBP=28
 0000:579C 0026 C=CODE   S=_TEXT          G=(none)  M=STRLEN     ACBP=28
 0000:57C2 0036 C=CODE   S=_TEXT          G=(none)  M=STRNCPY    ACBP=28
 0000:57F8 0359 C=CODE   S=_TEXT          G=(none)  M=TIMECVT    ACBP=28
 0000:5B51 0306 C=CODE   S=_TEXT          G=(none)  M=TZSET      ACBP=28
 0000:5E57 0170 C=CODE   S=_TEXT          G=(none)  M=WRITE      ACBP=28
 0000:5FC7 004F C=CODE   S=_TEXT          G=(none)  M=WRITEA     ACBP=28
 0000:6016 0003 C=CODE   S=_TEXT          G=(none)  M=WRITEU     ACBP=28
 0000:6019 0048 C=CODE   S=_TEXT          G=(none)  M=XFCLOSE    ACBP=28
 0000:6061 0041 C=CODE   S=_TEXT          G=(none)  M=XFFLUSH    ACBP=28
 0000:60A2 0027 C=CODE   S=_TEXT          G=(none)  M=FMEMCPY    ACBP=28
 0000:60C9 0033 C=CODE   S=_TEXT          G=(none)  M=FSTRCMP    ACBP=28
 0000:60FC 00AE C=CODE   S=_TEXT          G=(none)  M=FSBCLOSE   ACBP=28
 0000:61AA 0118 C=CODE   S=_TEXT          G=(none)  M=FSBCTR1    ACBP=28
 0000:62C2 00A2 C=CODE   S=_TEXT          G=(none)  M=FSBDTR     ACBP=28
 0000:6364 015A C=CODE   S=_TEXT          G=(none)  M=FSBOFLOW   ACBP=28
 0000:64BE 0168 C=CODE   S=_TEXT          G=(none)  M=FSBOPEN    ACBP=28
 0000:6626 00C3 C=CODE   S=_TEXT          G=(none)  M=FSBSBUF    ACBP=28
 0000:66E9 01BC C=CODE   S=_TEXT          G=(none)  M=FSBSKOFF   ACBP=28
 0000:68A5 01A1 C=CODE   S=_TEXT          G=(none)  M=FSBSYNC    ACBP=28
 0000:6A46 01BE C=CODE   S=_TEXT          G=(none)  M=FSBUFLOW   ACBP=28
 0000:6C04 0045 C=CODE   S=_TEXT          G=(none)  M=FSCLOSE    ACBP=28
 0000:6C49 00AF C=CODE   S=_TEXT          G=(none)  M=FSCTR1     ACBP=28
 0000:6CF8 00CC C=CODE   S=_TEXT          G=(none)  M=FSCTR2     ACBP=28
 0000:6DC4 008E C=CODE   S=_TEXT          G=(none)  M=FSDTR      ACBP=28
 0000:6E52 006D C=CODE   S=_TEXT          G=(none)  M=FSOPEN     ACBP=28
 0000:6EBF 00D3 C=CODE   S=_TEXT          G=(none)  M=IFSCTR1    ACBP=28
 0000:6F92 01A8 C=CODE   S=_TEXT          G=(none)  M=IFSCTR2    ACBP=28
 0000:713A 00BA C=CODE   S=_TEXT          G=(none)  M=IFSDTR     ACBP=28
 0000:71F4 008E C=CODE   S=_TEXT          G=(none)  M=ISTCTR1    ACBP=28
 0000:7282 00C2 C=CODE   S=_TEXT          G=(none)  M=ISTDIPFX   ACBP=28
 0000:7344 0078 C=CODE   S=_TEXT          G=(none)  M=ISTDTR1    ACBP=28
 0000:73BC 00DD C=CODE   S=_TEXT          G=(none)  M=ISTEATWH   ACBP=28
 0000:7499 0140 C=CODE   S=_TEXT          G=(none)  M=ISTGLINE   ACBP=28
 0000:75D9 0113 C=CODE   S=_TEXT          G=(none)  M=ISTREAD    ACBP=28
 0000:76EC 0060 C=CODE   S=_TEXT          G=(none)  M=ISTSKOFF   ACBP=28
 0000:774C 005D C=CODE   S=_TEXT          G=(none)  M=ISTSKPOS   ACBP=28
 0000:77A9 0073 C=CODE   S=_TEXT          G=(none)  M=ISTTELLG   ACBP=28
 0000:781C 00D3 C=CODE   S=_TEXT          G=(none)  M=OFSCTR1    ACBP=28
 0000:78EF 00BA C=CODE   S=_TEXT          G=(none)  M=OFSDTR     ACBP=28
 0000:79A9 0085 C=CODE   S=_TEXT          G=(none)  M=OSTCTR1    ACBP=28
 0000:7A2E 0085 C=CODE   S=_TEXT          G=(none)  M=OSTDTR1    ACBP=28
 0000:7AB3 0045 C=CODE   S=_TEXT          G=(none)  M=OSTFLUSH   ACBP=28
 0000:7AF8 005D C=CODE   S=_TEXT          G=(none)  M=OSTSKPOS   ACBP=28
 0000:7B55 0076 C=CODE   S=_TEXT          G=(none)  M=OSTTELLP   ACBP=28
 0000:7BCB 0053 C=CODE   S=_TEXT          G=(none)  M=OSTWRITE   ACBP=28
 0000:7C1E 0051 C=CODE   S=_TEXT          G=(none)  M=STBALC     ACBP=28
 0000:7C6F 00D4 C=CODE   S=_TEXT          G=(none)  M=STBCTR1    ACBP=28
 0000:7D43 00B7 C=CODE   S=_TEXT          G=(none)  M=STBDSGTN   ACBP=28
 0000:7DFA 00A9 C=CODE   S=_TEXT          G=(none)  M=STBDSPTN   ACBP=28
 0000:7EA3 007C C=CODE   S=_TEXT          G=(none)  M=STBDTR     ACBP=28
 0000:7F1F 000F C=CODE   S=_TEXT          G=(none)  M=STBOFLOW   ACBP=28
 0000:7F2E 000F C=CODE   S=_TEXT          G=(none)  M=STBPBFL    ACBP=28
 0000:7F3D 0033 C=CODE   S=_TEXT          G=(none)  M=STBSBUF    ACBP=28
 0000:7F70 00B6 C=CODE   S=_TEXT          G=(none)  M=STBSETB    ACBP=28
 0000:8026 0071 C=CODE   S=_TEXT          G=(none)  M=STBSETG    ACBP=28
 0000:8097 0053 C=CODE   S=_TEXT          G=(none)  M=STBSETP    ACBP=28
 0000:80EA 0012 C=CODE   S=_TEXT          G=(none)  M=STBSKOFF   ACBP=28
 0000:80FC 002B C=CODE   S=_TEXT          G=(none)  M=STBSKPOS   ACBP=28
 0000:8127 007D C=CODE   S=_TEXT          G=(none)  M=STBSPUTN   ACBP=28
 0000:81A4 0053 C=CODE   S=_TEXT          G=(none)  M=STBSYNC    ACBP=28
 0000:81F7 003A C=CODE   S=_TEXT          G=(none)  M=STBUFLOW   ACBP=28
 0000:8231 0041 C=CODE   S=_TEXT          G=(none)  M=STCLEAR    ACBP=28
 0000:8272 004C C=CODE   S=_TEXT          G=(none)  M=STCTR1     ACBP=28
 0000:82BE 0057 C=CODE   S=_TEXT          G=(none)  M=STDTR      ACBP=28
 0000:8315 005B C=CODE   S=_TEXT          G=(none)  M=STINIT     ACBP=28
 0000:8370 002D C=CODE   S=_TEXT          G=(none)  M=STSETST    ACBP=28
 0839:000D 1561 C=CODE   S=SINTEZER_TEXT  G=(none)  M=SINTEZER.CPP ACBP=28
 098F:000E 08AD C=CODE   S=DRAWCLK_TEXT   G=(none)  M=DRAWCLK.CPP ACBP=28
 0A1A:000B 08A5 C=CODE   S=TETSTART_TEXT  G=(none)  M=TETSTART.CPP ACBP=28
 0AA5:0000 0105 C=CODE   S=BMPVIEW_TEXT   G=(none)  M=BMPVIEW.CPP ACBP=28
 0AB5:0005 03DB C=CODE   S=FONTEDIT_TEXT  G=(none)  M=FONTEDIT.CPP ACBP=28
 0AF3:0000 0723 C=CODE   S=TET_SETT_TEXT  G=(none)  M=TET_SETT.CPP ACBP=28
 0B65:0003 03ED C=CODE   S=FIGURE_TEXT    G=(none)  M=FIGURE.CPP ACBP=28
 0BA4:0000 03DA C=CODE   S=GRAPH_TEXT     G=(none)  M=GRAPH.CPP  ACBP=28
 0BE1:000A 087F C=CODE   S=GLASS_TEXT     G=(none)  M=GLASS.CPP  ACBP=28
 0C69:0009 027B C=CODE   S=SETTINGS_TEXT  G=(none)  M=SETTINGS.CPP ACBP=28
 0C91:0004 0953 C=CODE   S=RECTABLE_TEXT  G=(none)  M=RECTABLE.CPP ACBP=28
 0D26:0007 059E C=CODE   S=KEYBOARD_TEXT  G=(none)  M=..\MY.LIB\KEYBOARD.CPP ACBP=28
 0D80:0005 2AB1 C=CODE   S=SCREEN_TEXT    G=(none)  M=..\MY.LIB\SCREEN.CPP ACBP=28
 102B:0006 0771 C=CODE   S=DEBUG_TEXT     G=(none)  M=..\MY.LIB\DEBUG.CPP ACBP=28
 10A2:0007 0207 C=CODE   S=MOUSE_TEXT     G=(none)  M=..\MY.LIB\MOUSE.CPP ACBP=28
 10C2:000E 03E0 C=CODE   S=TIMER_TEXT     G=(none)  M=..\MY.LIB\TIMER.CPP ACBP=28
 1100:000E 1883 C=CODE   S=MOVEOBJ_TEXT   G=(none)  M=..\MY.LIB\MOVEOBJ.CPP ACBP=28
 1289:0001 040D C=CODE   S=RECTS_TEXT     G=(none)  M=..\MY.LIB\RECTS.CPP ACBP=28
 12C9:000E 05E8 C=CODE   S=SOUND_TEXT     G=(none)  M=..\MY.LIB\SOUND.CPP ACBP=28
 1328:0006 0AA6 C=CODE   S=SPRITE_TEXT    G=(none)  M=..\MY.LIB\SPRITE.CPP ACBP=28
 13D2:000C 031B C=CODE   S=LOADER_TEXT    G=(none)  M=..\DIGMID.LIB\LOADER.C ACBP=28
 1404:0007 0063 C=CODE   S=MEMORY_TEXT    G=(none)  M=..\DIGMID.LIB\MEMORY.C ACBP=28
 140A:000A 1A04 C=CODE   S=DRAWRUNL_TEXT  G=(none)  M=DRAWRUNL.CPP ACBP=28
 15AA:000E 07E4 C=CODE   S=TETRIS3_TEXT   G=(none)  M=TETRIS3.CPP ACBP=28
 1629:0002 008C C=CODE   S=TETR_HLP_TEXT  G=(none)  M=TETR_HLP.CPP ACBP=28
 1631:000E 0A2E C=CODE   S=TEXTED2_TEXT   G=(none)  M=TEXTED2.CPP ACBP=28
 16D4:000C 18A2 C=CODE   S=TXTEDITR_TEXT  G=(none)  M=TXTEDITR.CPP ACBP=28
 185E:000E 288F C=CODE   S=TETRIS_TEXT    G=(none)  M=TETRIS.CPP ACBP=28
 1AE8:0000 0000 C=CODE   S=E87_PROG       G=(none)  M=FP87INIT   ACBP=68
 1AE8:0000 03E3 C=CODE   S=E87_PROG       G=(none)  M=EMU087     ACBP=68
 1AE8:03F0 01D8 C=CODE   S=E87_PROG       G=(none)  M=E87TRAP    ACBP=68
 1B45:0000 0000 C=FAR_DATA S=_FARDATA       G=(none)  M=C0.ASM     ACBP=68
 1B45:0000 1D4A C=FAR_DATA S=SINTEZER_DATA  G=(none)  M=SINTEZER.CPP ACBP=48
 1D19:000A 00B1 C=FAR_DATA S=DRAWCLK_DATA   G=(none)  M=DRAWCLK.CPP ACBP=48
 1D24:000C 058B C=FAR_DATA S=TETSTART_DATA  G=(none)  M=TETSTART.CPP ACBP=48
 1D7D:0008 0000 C=FAR_DATA S=BMPVIEW_DATA   G=(none)  M=BMPVIEW.CPP ACBP=48
 1D7D:0008 0041 C=FAR_DATA S=FONTEDIT_DATA  G=(none)  M=FONTEDIT.CPP ACBP=48
 1D81:000A 0149 C=FAR_DATA S=TET_SETT_DATA  G=(none)  M=TET_SETT.CPP ACBP=48
 1D96:0004 0020 C=FAR_DATA S=FIGURE_DATA    G=(none)  M=FIGURE.CPP ACBP=48
 1D98:0004 0141 C=FAR_DATA S=GRAPH_DATA     G=(none)  M=GRAPH.CPP  ACBP=48
 1DAC:0006 001A C=FAR_DATA S=GLASS_DATA     G=(none)  M=GLASS.CPP  ACBP=48
 1DAE:0000 0026 C=FAR_DATA S=SETTINGS_DATA  G=(none)  M=SETTINGS.CPP ACBP=48
 1DB0:0006 00A7 C=FAR_DATA S=RECTABLE_DATA  G=(none)  M=RECTABLE.CPP ACBP=48
 1DBA:000E 0362 C=FAR_DATA S=KEYBOARD_DATA  G=(none)  M=..\MY.LIB\KEYBOARD.CPP ACBP=48
 1DF1:0000 0006 C=FAR_DATA S=KEYBOARD5_DATA G=(none)  M=..\MY.LIB\KEYBOARD.CPP ACBP=68
 1DF2:0000 01C0 C=FAR_DATA S=KEYBOARD6_DATA G=(none)  M=..\MY.LIB\KEYBOARD.CPP ACBP=68
 1E0E:0000 0991 C=FAR_DATA S=SCREEN_DATA    G=(none)  M=..\MY.LIB\SCREEN.CPP ACBP=48
 1EA8:0000 000B C=FAR_DATA S=SCREEN5_DATA   G=(none)  M=..\MY.LIB\SCREEN.CPP ACBP=68
 1EA8:000C 0034 C=FAR_DATA S=DEBUG_DATA     G=(none)  M=..\MY.LIB\DEBUG.CPP ACBP=48
 1EAC:0000 0040 C=FAR_DATA S=MOUSE_DATA     G=(none)  M=..\MY.LIB\MOUSE.CPP ACBP=48
 1EB0:0000 0093 C=FAR_DATA S=TIMER_DATA     G=(none)  M=..\MY.LIB\TIMER.CPP ACBP=48
 1EBA:0000 000A C=FAR_DATA S=TIMER5_DATA    G=(none)  M=..\MY.LIB\TIMER.CPP ACBP=68
 1EBA:000A 03F4 C=FAR_DATA S=MOVEOBJ_DATA   G=(none)  M=..\MY.LIB\MOVEOBJ.CPP ACBP=48
 1EFA:0000 0014 C=FAR_DATA S=MOVEOBJ5_DATA  G=(none)  M=..\MY.LIB\MOVEOBJ.CPP ACBP=68
 1EFB:0004 0060 C=FAR_DATA S=RECTS_DATA     G=(none)  M=..\MY.LIB\RECTS.CPP ACBP=48
 1F01:0004 1519 C=FAR_DATA S=SOUND_DATA     G=(none)  M=..\MY.LIB\SOUND.CPP ACBP=48
 2053:0000 0002 C=FAR_DATA S=SOUND5_DATA    G=(none)  M=..\MY.LIB\SOUND.CPP ACBP=68
 2053:0002 0337 C=FAR_DATA S=SPRITE_DATA    G=(none)  M=..\MY.LIB\SPRITE.CPP ACBP=48
 2087:0000 0002 C=FAR_DATA S=SPRITE5_DATA   G=(none)  M=..\MY.LIB\SPRITE.CPP ACBP=68
 2087:0002 001E C=FAR_DATA S=LOADER_DATA    G=(none)  M=..\DIGMID.LIB\LOADER.C ACBP=48
 2089:0000 0000 C=FAR_DATA S=MEMORY_DATA    G=(none)  M=..\DIGMID.LIB\MEMORY.C ACBP=48
 2089:0000 0D0B C=FAR_DATA S=DRAWRUNL_DATA  G=(none)  M=DRAWRUNL.CPP ACBP=48
 2159:000C 00EF C=FAR_DATA S=TETRIS3_DATA   G=(none)  M=TETRIS3.CPP ACBP=48
 2168:000C 015E C=FAR_DATA S=TETR_HLP_DATA  G=(none)  M=TETR_HLP.CPP ACBP=48
 217E:000A 0365 C=FAR_DATA S=TEXTED2_DATA   G=(none)  M=TEXTED2.CPP ACBP=48
 21B5:0000 0615 C=FAR_DATA S=TXTEDITR_DATA  G=(none)  M=TXTEDITR.CPP ACBP=48
 2216:0006 0BE0 C=FAR_DATA S=TETRIS_DATA    G=(none)  M=TETRIS.CPP ACBP=48
 22D4:0006 0024 C=FAR_DATA S=HUGEVAL_DATA   G=(none)  M=HUGEVAL    ACBP=48
 22D6:000A 0000 C=FAR_DATA S=LDTRUNC_DATA   G=(none)  M=LDTRUNC    ACBP=48
 22D6:000A 0043 C=FAR_DATA S=MATHWHY_DATA   G=(none)  M=MATHWHY    ACBP=48
 22DA:000E 0000 C=FAR_DATA S=REALCVT_DATA   G=(none)  M=REALCVT    ACBP=48
 22DA:000E 0018 C=FAR_DATA S=SCANTOD_DATA   G=(none)  M=SCANTOD    ACBP=48
 22DC:0006 0000 C=FAR_DATA S=XCVT_DATA      G=(none)  M=XCVT       ACBP=48
 22DC:0006 009A C=FAR_DATA S=FPERR_DATA     G=(none)  M=FPERR      ACBP=48
 22E6:0000 0080 C=FAR_DATA S=_POW10_DATA    G=(none)  M=_POW10     ACBP=48
 22EE:0000 0000 C=FAR_DATA S=POW10D_DATA    G=(none)  M=POW10D     ACBP=48
 22EE:0000 0000 C=FAR_DATA S=MATHERR_DATA   G=(none)  M=MATHERR    ACBP=48
 22EE:0000 000D C=FAR_DATA S=SQRT_DATA      G=(none)  M=SQRT       ACBP=48
 22EE:000E 0010 C=FAR_DATA S=POW_DATA       G=(none)  M=POW        ACBP=48
 22EF:000E 000C C=FAR_DATA S=SIN_DATA       G=(none)  M=SIN        ACBP=48
 22F0:000A 000E C=FAR_DATA S=_MATHERR_DATA  G=(none)  M=_MATHERR   ACBP=48
 22F1:0008 000C C=FAR_DATA S=COS_DATA       G=(none)  M=COS        ACBP=48
 22F3:0000 0002 C=FAR_DATA S=FSBDTR5_DATA   G=(none)  M=FSBDTR     ACBP=68
 22F4:0000 0016 C=FAR_DATA S=STDTR5_DATA    G=(none)  M=STDTR      ACBP=68
 22F6:0000 0000 C=FAR_BSS S=_FARBSS        G=(none)  M=C0.ASM     ACBP=68
 22F6:0000 0000 C=OVRINFO S=_OVERLAY_      G=(none)  M=C0.ASM     ACBP=68
 22F6:0000 0000 C=STUBSEG S=_1STUB_        G=(none)  M=C0.ASM     ACBP=68
 22F6:0000 0091 C=DATA   S=_DATA          G=DGROUP  M=C0.ASM     ACBP=68
 22F6:00A0 0002 C=DATA   S=_DATA          G=DGROUP  M=FP87INIT   ACBP=68
 22F6:00B0 0000 C=DATA   S=_DATA          G=DGROUP  M=E87TRAP    ACBP=68
 22F6:00B0 0003 C=DATA   S=_DATA          G=DGROUP  M=PROTFLAG   ACBP=48
 22F6:00B4 0002 C=DATA   S=_DATA          G=DGROUP  M=DEFLT87    ACBP=48
 22F6:00B6 0000 C=DATA   S=_DATA          G=DGROUP  M=FFTOL      ACBP=48
 22F6:00B6 0082 C=DATA   S=_DATA          G=DGROUP  M=ATEXIT     ACBP=48
 22F6:0138 0101 C=DATA   S=_DATA          G=DGROUP  M=CTYPE      ACBP=48
 22F6:023A 0000 C=DATA   S=_DATA          G=DGROUP  M=DEL        ACBP=48
 22F6:023A 0000 C=DATA   S=_DATA          G=DGROUP  M=DOSFATTR   ACBP=48
 22F6:023A 0000 C=DATA   S=_DATA          G=DGROUP  M=DOSVECT    ACBP=48
 22F6:023A 000C C=DATA   S=_DATA          G=DGROUP  M=EXIT       ACBP=48
 22F6:0246 0000 C=DATA   S=_DATA          G=DGROUP  M=FGETPOS    ACBP=48
 22F6:0246 0190 C=DATA   S=_DATA          G=DGROUP  M=FILES      ACBP=48
 22F6:03D6 002A C=DATA   S=_DATA          G=DGROUP  M=FILES2     ACBP=48
 22F6:0400 0004 C=DATA   S=_DATA          G=DGROUP  M=FMODE      ACBP=48
 22F6:0404 0002 C=DATA   S=_DATA          G=DGROUP  M=FPSTKLEN   ACBP=48
 22F6:0406 0000 C=DATA   S=_DATA          G=DGROUP  M=F_SCOPY    ACBP=48
 22F6:0406 0000 C=DATA   S=_DATA          G=DGROUP  M=GETDATE    ACBP=48
 22F6:0406 0000 C=DATA   S=_DATA          G=DGROUP  M=GETVECT    ACBP=48
 22F6:0406 0000 C=DATA   S=_DATA          G=DGROUP  M=H_LDIV     ACBP=48
 22F6:0406 0000 C=DATA   S=_DATA          G=DGROUP  M=H_LLSH     ACBP=48
 22F6:0406 0000 C=DATA   S=_DATA          G=DGROUP  M=H_PADD     ACBP=48
 22F6:0406 005B C=DATA   S=_DATA          G=DGROUP  M=IOERROR    ACBP=48
 22F6:0462 0000 C=DATA   S=_DATA          G=DGROUP  M=ISATTY     ACBP=48
 22F6:0462 0000 C=DATA   S=_DATA          G=DGROUP  M=LONGTOA    ACBP=48
 22F6:0462 0000 C=DATA   S=_DATA          G=DGROUP  M=LSEEK      ACBP=48
 22F6:0462 0016 C=DATA   S=_DATA          G=DGROUP  M=MKNAME     ACBP=48
 22F6:0478 0004 C=DATA   S=_DATA          G=DGROUP  M=NEW        ACBP=48
 22F6:047C 0000 C=DATA   S=_DATA          G=DGROUP  M=NEWF       ACBP=48
 22F6:047C 0000 C=DATA   S=_DATA          G=DGROUP  M=N_LXMUL    ACBP=48
 22F6:047C 0000 C=DATA   S=_DATA          G=DGROUP  M=N_PCMP     ACBP=48
 22F6:047C 0004 C=DATA   S=_DATA          G=DGROUP  M=RAND       ACBP=48
 22F6:0480 0000 C=DATA   S=_DATA          G=DGROUP  M=READA      ACBP=48
 22F6:0480 0000 C=DATA   S=_DATA          G=DGROUP  M=SETDATE    ACBP=48
 22F6:0480 0000 C=DATA   S=_DATA          G=DGROUP  M=SETUPIO    ACBP=48
 22F6:0480 0004 C=DATA   S=_DATA          G=DGROUP  M=SIGDATA    ACBP=48
 22F6:0484 0000 C=DATA   S=_DATA          G=DGROUP  M=STIME      ACBP=48
 22F6:0484 0002 C=DATA   S=_DATA          G=DGROUP  M=STKLEN     ACBP=48
 22F6:0486 0000 C=DATA   S=_DATA          G=DGROUP  M=UNLINK     ACBP=48
 22F6:0486 0000 C=DATA   S=_DATA          G=DGROUP  M=VDELF      ACBP=48
 22F6:0486 0000 C=DATA   S=_DATA          G=DGROUP  M=VNEWF      ACBP=48
 22F6:0486 0067 C=DATA   S=_DATA          G=DGROUP  M=VPRINTER   ACBP=48
 22F6:04EE 0000 C=DATA   S=_DATA          G=DGROUP  M=VRAM       ACBP=48
 22F6:04EE 0002 C=DATA   S=_DATA          G=DGROUP  M=WSCROLL    ACBP=48
 22F6:04F0 0000 C=DATA   S=_DATA          G=DGROUP  M=_STPCPY    ACBP=48
 22F6:04F0 0000 C=DATA   S=_DATA          G=DGROUP  M=CPRINTF    ACBP=48
 22F6:04F0 0018 C=DATA   S=_DATA          G=DGROUP  M=CRTINIT    ACBP=48
 22F6:0508 0031 C=DATA   S=_DATA          G=DGROUP  M=CVTFAK     ACBP=48
 22F6:053A 0000 C=DATA   S=_DATA          G=DGROUP  M=FARHEAP    ACBP=48
 22F6:053A 0002 C=DATA   S=_DATA          G=DGROUP  M=FBRK       ACBP=48
 22F6:053C 0000 C=DATA   S=_DATA          G=DGROUP  M=GETCH      ACBP=48
 22F6:053C 0000 C=DATA   S=_DATA          G=DGROUP  M=GPTEXT     ACBP=48
 22F6:053C 0000 C=DATA   S=_DATA          G=DGROUP  M=IOCTL      ACBP=48
 22F6:053C 0002 C=DATA   S=_DATA          G=DGROUP  M=KBHIT      ACBP=48
 22F6:053E 0000 C=DATA   S=_DATA          G=DGROUP  M=MOVETEXT   ACBP=48
 22F6:053E 0000 C=DATA   S=_DATA          G=DGROUP  M=PUTCH      ACBP=48
 22F6:053E 0000 C=DATA   S=_DATA          G=DGROUP  M=REALCVT    ACBP=48
 22F6:053E 0000 C=DATA   S=_DATA          G=DGROUP  M=SCREEN     ACBP=48
 22F6:053E 0000 C=DATA   S=_DATA          G=DGROUP  M=SCROLL     ACBP=48
 22F6:053E 0000 C=DATA   S=_DATA          G=DGROUP  M=SETBLOCK   ACBP=48
 22F6:053E 0004 C=DATA   S=_DATA          G=DGROUP  M=SETENVP    ACBP=48
 22F6:0542 0000 C=DATA   S=_DATA          G=DGROUP  M=STACK      ACBP=48
 22F6:0542 0000 C=DATA   S=_DATA          G=DGROUP  M=WHEREXY    ACBP=48
 22F6:0542 0000 C=DATA   S=_DATA          G=DGROUP  M=ATOL       ACBP=48
 22F6:0542 0000 C=DATA   S=_DATA          G=DGROUP  M=CHMODA     ACBP=48
 22F6:0542 0000 C=DATA   S=_DATA          G=DGROUP  M=CLOSE      ACBP=48
 22F6:0542 0000 C=DATA   S=_DATA          G=DGROUP  M=CLOSEA     ACBP=48
 22F6:0542 0000 C=DATA   S=_DATA          G=DGROUP  M=EOF        ACBP=48
 22F6:0542 0000 C=DATA   S=_DATA          G=DGROUP  M=FCLOSE     ACBP=48
 22F6:0542 0000 C=DATA   S=_DATA          G=DGROUP  M=FFLUSH     ACBP=48
 22F6:0542 0000 C=DATA   S=_DATA          G=DGROUP  M=FLUSHALL   ACBP=48
 22F6:0542 0000 C=DATA   S=_DATA          G=DGROUP  M=FOPEN      ACBP=48
 22F6:0542 0000 C=DATA   S=_DATA          G=DGROUP  M=FPRINTF    ACBP=48
 22F6:0542 0000 C=DATA   S=_DATA          G=DGROUP  M=FREAD      ACBP=48
 22F6:0542 0000 C=DATA   S=_DATA          G=DGROUP  M=FSEEK      ACBP=48
 22F6:0542 0001 C=DATA   S=_DATA          G=DGROUP  M=GETC       ACBP=48
 22F6:0544 0000 C=DATA   S=_DATA          G=DGROUP  M=GETENV     ACBP=48
 22F6:0544 0000 C=DATA   S=_DATA          G=DGROUP  M=MEMCPY     ACBP=48
 22F6:0544 0000 C=DATA   S=_DATA          G=DGROUP  M=MEMSET     ACBP=48
 22F6:0544 0000 C=DATA   S=_DATA          G=DGROUP  M=OPEN       ACBP=48
 22F6:0544 0000 C=DATA   S=_DATA          G=DGROUP  M=OPENA      ACBP=48
 22F6:0544 0002 C=DATA   S=_DATA          G=DGROUP  M=PUTC       ACBP=48
 22F6:0546 0000 C=DATA   S=_DATA          G=DGROUP  M=READ       ACBP=48
 22F6:0546 0000 C=DATA   S=_DATA          G=DGROUP  M=READU      ACBP=48
 22F6:0546 0004 C=DATA   S=_DATA          G=DGROUP  M=SETVBUF    ACBP=48
 22F6:054A 0000 C=DATA   S=_DATA          G=DGROUP  M=SPRINTF    ACBP=48
 22F6:054A 0000 C=DATA   S=_DATA          G=DGROUP  M=STRCAT     ACBP=48
 22F6:054A 0000 C=DATA   S=_DATA          G=DGROUP  M=STRCPY     ACBP=48
 22F6:054A 0000 C=DATA   S=_DATA          G=DGROUP  M=STRLEN     ACBP=48
 22F6:054A 0000 C=DATA   S=_DATA          G=DGROUP  M=STRNCPY    ACBP=48
 22F6:054A 000C C=DATA   S=_DATA          G=DGROUP  M=TIMECVT    ACBP=48
 22F6:0556 003B C=DATA   S=_DATA          G=DGROUP  M=TZSET      ACBP=48
 22F6:0592 0000 C=DATA   S=_DATA          G=DGROUP  M=WRITE      ACBP=48
 22F6:0592 0000 C=DATA   S=_DATA          G=DGROUP  M=WRITEA     ACBP=48
 22F6:0592 0000 C=DATA   S=_DATA          G=DGROUP  M=WRITEU     ACBP=48
 22F6:0592 0000 C=DATA   S=_DATA          G=DGROUP  M=XFCLOSE    ACBP=48
 22F6:0592 0000 C=DATA   S=_DATA          G=DGROUP  M=XFFLUSH    ACBP=48
 22F6:0592 0000 C=DATA   S=_DATA          G=DGROUP  M=FMEMCPY    ACBP=48
 22F6:0592 0000 C=DATA   S=_DATA          G=DGROUP  M=FSTRCMP    ACBP=48
 22F6:0592 0000 C=DATA   S=_DATA          G=DGROUP  M=FSBCLOSE   ACBP=48
 22F6:0592 0000 C=DATA   S=_DATA          G=DGROUP  M=FSBCTR1    ACBP=48
 22F6:0592 0000 C=DATA   S=_DATA          G=DGROUP  M=FSBDTR     ACBP=48
 22F6:0592 0000 C=DATA   S=_DATA          G=DGROUP  M=FSBOFLOW   ACBP=48
 22F6:0592 0000 C=DATA   S=_DATA          G=DGROUP  M=FSBOPEN    ACBP=48
 22F6:0592 0000 C=DATA   S=_DATA          G=DGROUP  M=FSBSBUF    ACBP=48
 22F6:0592 0000 C=DATA   S=_DATA          G=DGROUP  M=FSBSKOFF   ACBP=48
 22F6:0592 0000 C=DATA   S=_DATA          G=DGROUP  M=FSBSYNC    ACBP=48
 22F6:0592 0000 C=DATA   S=_DATA          G=DGROUP  M=FSBUFLOW   ACBP=48
 22F6:0592 0000 C=DATA   S=_DATA          G=DGROUP  M=FSCLOSE    ACBP=48
 22F6:0592 0000 C=DATA   S=_DATA          G=DGROUP  M=FSCTR1     ACBP=48
 22F6:0592 0000 C=DATA   S=_DATA          G=DGROUP  M=FSCTR2     ACBP=48
 22F6:0592 0000 C=DATA   S=_DATA          G=DGROUP  M=FSDTR      ACBP=48
 22F6:0592 0000 C=DATA   S=_DATA          G=DGROUP  M=FSOPEN     ACBP=48
 22F6:0592 0000 C=DATA   S=_DATA          G=DGROUP  M=IFSCTR1    ACBP=48
 22F6:0592 0000 C=DATA   S=_DATA          G=DGROUP  M=IFSCTR2    ACBP=48
 22F6:0592 0000 C=DATA   S=_DATA          G=DGROUP  M=IFSDTR     ACBP=48
 22F6:0592 0000 C=DATA   S=_DATA          G=DGROUP  M=ISTCTR1    ACBP=48
 22F6:0592 0000 C=DATA   S=_DATA          G=DGROUP  M=ISTDIPFX   ACBP=48
 22F6:0592 0000 C=DATA   S=_DATA          G=DGROUP  M=ISTDTR1    ACBP=48
 22F6:0592 0000 C=DATA   S=_DATA          G=DGROUP  M=ISTEATWH   ACBP=48
 22F6:0592 0000 C=DATA   S=_DATA          G=DGROUP  M=ISTGLINE   ACBP=48
 22F6:0592 0000 C=DATA   S=_DATA          G=DGROUP  M=ISTREAD    ACBP=48
 22F6:0592 0000 C=DATA   S=_DATA          G=DGROUP  M=ISTSKOFF   ACBP=48
 22F6:0592 0000 C=DATA   S=_DATA          G=DGROUP  M=ISTSKPOS   ACBP=48
 22F6:0592 0000 C=DATA   S=_DATA          G=DGROUP  M=ISTTELLG   ACBP=48
 22F6:0592 0000 C=DATA   S=_DATA          G=DGROUP  M=OFSCTR1    ACBP=48
 22F6:0592 0000 C=DATA   S=_DATA          G=DGROUP  M=OFSDTR     ACBP=48
 22F6:0592 0000 C=DATA   S=_DATA          G=DGROUP  M=OSTCTR1    ACBP=48
 22F6:0592 0000 C=DATA   S=_DATA          G=DGROUP  M=OSTDTR1    ACBP=48
 22F6:0592 0000 C=DATA   S=_DATA          G=DGROUP  M=OSTFLUSH   ACBP=48
 22F6:0592 0000 C=DATA   S=_DATA          G=DGROUP  M=OSTSKPOS   ACBP=48
 22F6:0592 0000 C=DATA   S=_DATA          G=DGROUP  M=OSTTELLP   ACBP=48
 22F6:0592 0000 C=DATA   S=_DATA          G=DGROUP  M=OSTWRITE   ACBP=48
 22F6:0592 0000 C=DATA   S=_DATA          G=DGROUP  M=STBALC     ACBP=48
 22F6:0592 0000 C=DATA   S=_DATA          G=DGROUP  M=STBCTR1    ACBP=48
 22F6:0592 0000 C=DATA   S=_DATA          G=DGROUP  M=STBDSGTN   ACBP=48
 22F6:0592 0000 C=DATA   S=_DATA          G=DGROUP  M=STBDSPTN   ACBP=48
 22F6:0592 0000 C=DATA   S=_DATA          G=DGROUP  M=STBDTR     ACBP=48
 22F6:0592 0000 C=DATA   S=_DATA          G=DGROUP  M=STBOFLOW   ACBP=48
 22F6:0592 0000 C=DATA   S=_DATA          G=DGROUP  M=STBPBFL    ACBP=48
 22F6:0592 0000 C=DATA   S=_DATA          G=DGROUP  M=STBSBUF    ACBP=48
 22F6:0592 0000 C=DATA   S=_DATA          G=DGROUP  M=STBSETB    ACBP=48
 22F6:0592 0000 C=DATA   S=_DATA          G=DGROUP  M=STBSETG    ACBP=48
 22F6:0592 0000 C=DATA   S=_DATA          G=DGROUP  M=STBSETP    ACBP=48
 22F6:0592 0000 C=DATA   S=_DATA          G=DGROUP  M=STBSKOFF   ACBP=48
 22F6:0592 0000 C=DATA   S=_DATA          G=DGROUP  M=STBSKPOS   ACBP=48
 22F6:0592 0000 C=DATA   S=_DATA          G=DGROUP  M=STBSPUTN   ACBP=48
 22F6:0592 0000 C=DATA   S=_DATA          G=DGROUP  M=STBSYNC    ACBP=48
 22F6:0592 0000 C=DATA   S=_DATA          G=DGROUP  M=STBUFLOW   ACBP=48
 22F6:0592 0000 C=DATA   S=_DATA          G=DGROUP  M=STCLEAR    ACBP=48
 22F6:0592 0000 C=DATA   S=_DATA          G=DGROUP  M=STCTR1     ACBP=48
 22F6:0592 0000 C=DATA   S=_DATA          G=DGROUP  M=STDTR      ACBP=48
 22F6:0592 0000 C=DATA   S=_DATA          G=DGROUP  M=STINIT     ACBP=48
 22F6:0592 0000 C=DATA   S=_DATA          G=DGROUP  M=STSETST    ACBP=48
 22F6:0592 0000 C=DATA   S=_CVTSEG        G=DGROUP  M=C0.ASM     ACBP=48
 22F6:0592 0002 C=DATA   S=_CVTSEG        G=DGROUP  M=REALCVT    ACBP=48
 22F6:0594 0002 C=DATA   S=_CVTSEG        G=DGROUP  M=CVTFAK     ACBP=48
 22F6:0596 0000 C=DATA   S=_CVTSEG        G=DGROUP  M=REALCVT    ACBP=48
 22F6:0596 0000 C=DATA   S=_SCNSEG        G=DGROUP  M=C0.ASM     ACBP=48
 22F6:0596 0006 C=DATA   S=_SCNSEG        G=DGROUP  M=SCANTOD    ACBP=48
 22F6:059C 0006 C=DATA   S=_SCNSEG        G=DGROUP  M=CVTFAK     ACBP=48
 22F6:05A2 0000 C=CONST  S=_CONST         G=DGROUP  M=C0.ASM     ACBP=48
 22F6:05A2 0000 C=INITDATA S=_INIT_         G=DGROUP  M=C0.ASM     ACBP=48
 22F6:05A2 0006 C=INITDATA S=_INIT_         G=DGROUP  M=SINTEZER.CPP ACBP=48
 22F6:05A8 0006 C=INITDATA S=_INIT_         G=DGROUP  M=FIGURE.CPP ACBP=48
 22F6:05AE 0006 C=INITDATA S=_INIT_         G=DGROUP  M=..\MY.LIB\KEYBOARD.CPP ACBP=48
 22F6:05B4 0006 C=INITDATA S=_INIT_         G=DGROUP  M=..\MY.LIB\SCREEN.CPP ACBP=48
 22F6:05BA 0006 C=INITDATA S=_INIT_         G=DGROUP  M=..\MY.LIB\TIMER.CPP ACBP=48
 22F6:05C0 0006 C=INITDATA S=_INIT_         G=DGROUP  M=..\MY.LIB\MOVEOBJ.CPP ACBP=48
 22F6:05C6 0006 C=INITDATA S=_INIT_         G=DGROUP  M=DRAWRUNL.CPP ACBP=48
 22F6:05CC 0006 C=INITDATA S=_INIT_         G=DGROUP  M=TETRIS3.CPP ACBP=48
 22F6:05D2 0006 C=INITDATA S=_INIT_         G=DGROUP  M=TETRIS.CPP ACBP=48
 22F6:05D8 0006 C=INITDATA S=_INIT_         G=DGROUP  M=FP87INIT   ACBP=48
 22F6:05DE 0006 C=INITDATA S=_INIT_         G=DGROUP  M=SETUPIO    ACBP=48
 22F6:05E4 0006 C=INITDATA S=_INIT_         G=DGROUP  M=CRTINIT    ACBP=48
 22F6:05EA 0006 C=INITDATA S=_INIT_         G=DGROUP  M=SETENVP    ACBP=48
 22F6:05F0 0006 C=INITDATA S=_INIT_         G=DGROUP  M=TZSET      ACBP=48
 22F6:05F6 0000 C=INITDATA S=_INITEND_      G=DGROUP  M=C0.ASM     ACBP=28
 22F6:05F6 0000 C=EXITDATA S=_EXIT_         G=DGROUP  M=C0.ASM     ACBP=48
 22F6:05F6 0006 C=EXITDATA S=_EXIT_         G=DGROUP  M=FIGURE.CPP ACBP=48
 22F6:05FC 0006 C=EXITDATA S=_EXIT_         G=DGROUP  M=..\MY.LIB\KEYBOARD.CPP ACBP=48
 22F6:0602 0006 C=EXITDATA S=_EXIT_         G=DGROUP  M=..\MY.LIB\SCREEN.CPP ACBP=48
 22F6:0608 0006 C=EXITDATA S=_EXIT_         G=DGROUP  M=..\MY.LIB\TIMER.CPP ACBP=48
 22F6:060E 0006 C=EXITDATA S=_EXIT_         G=DGROUP  M=DRAWRUNL.CPP ACBP=48
 22F6:0614 0006 C=EXITDATA S=_EXIT_         G=DGROUP  M=TETRIS.CPP ACBP=48
 22F6:061A 0006 C=EXITDATA S=_EXIT_         G=DGROUP  M=FP87INIT   ACBP=48
 22F6:0620 0000 C=EXITDATA S=_EXITEND_      G=DGROUP  M=C0.ASM     ACBP=28
 2358:0000 0110 C=STACK  S=_STACK         G=(none)  M=C0.ASM     ACBP=74
 2358:0000 0080 C=STACK  S=_STACK         G=(none)  M=EMUVARS    ACBP=78

  Address         Publics by Name

 0000:1D45       operator delete(void far*)
 140A:19D3       operator <<(screen far&,manipmy far&)
 0000:22DA       operator new(unsigned int)
 0000:2323       operator new(unsigned long)
 0D80:2972       abs(int)
 1100:1822       anim::
 185E:2787       anim::anim(sprite far*)
 1100:0B58       anim::anim()
 185E:26AD       anim::operator +=(anim far&)
 1100:1746       anim::operator [](int)
 1100:0D04       anim::animate()
 1100:0BE4       anim::renewframe()
 1100:17DB       anim::renewtimelive()
 1100:15E2       anim::show()
 16D4:1751 idle  check(char far*,char far*)
 1289:0281 idle  checkunionrects(rect far&,rect far&)
 16D4:17EB idle  checkword(char far*)
 16D4:00DD       colorchange()
 0D80:2547       cur(int,int)
 102B:072D       debug(char far*)
 1289:011E idle  determinesystem(int,int,int,int)
 1289:003D idle  determinesystem(int,int,int,int,int far&,int far&)
 1289:01E9       determinesystem(rect far&,rect far&,rect far&)
 0AA5:00E6 idle  drawbmp(int,int)
 098F:03FD       drawclock()
 098F:000E idle  drawclock2()
 0BE1:0286       drawglassbox(int,int,int,int,char)
 185E:1A9E idle  drawpalette()
 140A:082F       drawrunline(int)
 098F:0104 idle  drawstrelka(int,int,int,int,int,int,int,int,double)
 102B:06C3       fatal(char far*)
 0AA5:00C9 idle  fatal_(char far*)
 0B65:0003       figure::figure()
 0B65:0291       figure::check()
 0B65:01BA       figure::show(int)
 0B65:00A6       figure::show(int,int)
 0B65:0074       figure::show()
 0000:61AA       filebuf::filebuf()
 0000:62C2       filebuf::~filebuf()
 0000:60FC       filebuf::close()
 0000:64BE       filebuf::open(const char far*,int,int)
 22F3:0000       filebuf::openprot
 0000:6364       filebuf::overflow(int)
 0000:66E9       filebuf::seekoff(long,seek_dir,int)
 0000:6626       filebuf::setbuf(char far*,int)
 0000:68A5       filebuf::sync()
 0000:6A46       filebuf::underflow()
 16D4:018B idle  find(char)
 140A:053C idle  findzaglavie(long,int)
 16D4:016A idle  find_zaglav()
 0D80:2583 idle  font::font(int)
 0D80:26EC idle  font::~font()
 0D80:2737 idle  font::show(int,int,int,char)
 0AB5:0005       fonteditor(char far*)
 0000:6CF8       fstreambase::fstreambase(const char far*,int,int)
 0000:6C49       fstreambase::fstreambase()
 0000:6DC4       fstreambase::~fstreambase()
 0000:6C04       fstreambase::close()
 0000:6E52       fstreambase::open(const char far*,int,int)
 140A:0627 idle  fun2(char far*,char far*,int,int far*,int far*,int far*,char,int far*)
 1631:0341       fun_code13()
 1631:0445       fun_code8()
 1631:0102       fun_delay()
 1631:09AB       fun_key_f1()
 1631:06A3       fun_key_m_key_0()
 1631:072B       fun_key_m_key_1()
 1631:083B       fun_key_m_key_2()
 1631:07B3       fun_key_m_key_3()
 1631:08C3       fun_key_m_key_4()
 1631:094B       fun_key_pad9()
 1631:03B2       fun_pad0()
 1631:055F       fun_pad6()
 1631:04FF idle  fun_pad9()
 1631:029E       fun_show_cursor()
 1631:000E       fun_show_debug()
 0839:0323 idle  generatesound()
 15AA:0645       generate_picture()
 0839:000D idle  getfunctionalkeyscan(int)
 0839:0061 idle  getfunctionalkeyscan2(int)
 10C2:0178       getrealtimeclock(unsigned char far&,unsigned char far&,unsigned char far&)
 0BE1:000A       glass::glass()
 0BE1:00DA       glass::~glass()
 0BE1:0131       glass::clear()
 0BE1:06B0       glass::load(char far*)
 0BE1:0190       glass::make(unsigned int,unsigned int)
 0BE1:021F       glass::read(int,int)
 0BE1:07BB       glass::save(char far*)
 0BE1:04C4       glass::show()
 0BE1:0089 idle  glass::showbackground(int)
 0BE1:058D idle  glass::showborder()
 0BE1:064F       glass::write(int,int,unsigned int)
 0BA4:009C idle  graph_draw_digit(int,int,int)
 0BA4:01B3 idle  graph_draw_image(int,int,int,int,char far*)
 0BA4:02D0       graph_draw_num(int,int,unsigned long)
 0BA4:023B       graph_draw_symbol(int,int,char)
 0BA4:0134 idle  graph_draw_symbol(int,int,char,int)
 0BA4:0151 idle  graph_draw_text(int,int,char far*,int)
 0BA4:0346 idle  graph_horz_line(int,int,int)
 0BA4:0390 idle  graph_vert_line(int,int,int)
 0000:7054 idle  ifstream::ifstream(const unsigned char far*,int,int)
 0000:6F92       ifstream::ifstream(const char far*,int,int)
 0000:6EBF       ifstream::ifstream()
 0000:713A       ifstream::~ifstream()
 0AF3:0657       ifstream::open(const char far*,int,int)
 10C2:000E idle  int08h_new1()
 0000:8272       ios::ios()
 0000:82BE       ios::~ios()
 0AF3:0692       ios::operator !()
 22F4:0004 idle  ios::adjustfield
 22F4:0000 idle  ios::basefield
 0000:8231       ios::clear(int)
 185E:26E0       ios::eof()
 0AF3:06FA       ios::fail()
 22F4:0008 idle  ios::floatfield
 0000:8315       ios::init(streambuf far*)
 22F4:000C idle  ios::nextbit
 0000:8370       ios::setstate(int)
 22F4:0012 idle  ios::stdioflush
 22F4:0010 idle  ios::usercount
 0000:71F4       istream::istream()
 0000:7344       istream::~istream()
 0000:73BC       istream::eatwhite()
 185E:2709       istream::getline(unsigned char far*,int,char)
 0000:7499       istream::getline(char far*,int,char)
 0000:7282       istream::ipfx(int)
 0D80:2911       istream::read(unsigned char far*,int)
 0000:75D9       istream::read(char far*,int)
 0000:774C       istream::seekg(long)
 0000:76EC       istream::seekg(long,seek_dir)
 0000:77A9       istream::tellg()
 0839:00B5 idle  keybfunctional(int)
 0839:0143 idle  keybfunctionalclear(int)
 0D26:015F idle  keyboard::keyboard()
 0D26:022D idle  keyboard::~keyboard()
 0839:1542       keyboard::operator [](char)
 0D26:0035 idle  keyboard::anykey()
 0D26:0007 idle  keyboard::check(unsigned char)
 0D26:0125       keyboard::clear()
 1DF1:0000 idle  keyboard::countobject
 0D26:027A idle  keyboard::int09h_new()
 1DF2:0000       keyboard::key
 0D26:0080       keyboard::readscan(unsigned long)
 0D26:0494       keyboard::set(char,char)
 0D26:04C4       keyboard::setinputmode(int)
 0D26:0527       keyboard::standartinput()
 0D26:04FB       keyboard::superinput()
 1DF1:0002 idle  keyboard::this
 185E:1865 idle  load_music()
 185E:000E idle  load_sounds()
 140A:000A       load_sprites()
 0D80:2A63       manipmy::manipmy(screen far&(far*)(screen far&,int),int)
 16D4:1720 idle  min(int,int)
 1100:17A6       mindobj::
 1100:1031 idle  mindobj::mindobj()
 1100:1095 idle  mindobj::~mindobj()
 1100:0E30 idle  mindobj::operator +=(mindobj far&)
 1100:1776       mindobj::operator [](int)
 1100:0E59 idle  mindobj::add(mindobj far&,int,mindobj::going far*,mindobj::framing far*,...
 1100:1401 idle  mindobj::del(moveobj far*)
 1100:116E idle  mindobj::renewframe()
 1100:1220 idle  mindobj::renewxy()
 1100:1457 idle  mindobj::show()
 10A2:006C       mouse::mouse(screen far*)
 10A2:00E3       mouse::~mouse()
 10A2:0007 idle  mouse::draw()
 10A2:011C idle  mouse::read()
 10A2:01D1 idle  mouse::set()
 10A2:0167 idle  mouse::set_horz_movement(int,int)
 10A2:019C idle  mouse::set_vert_movement(int,int)
 185E:27E7       movefigure::
 185E:2609       movefigure::movefigure(sprite far*)
 185E:284E       movefigure::~movefigure()
 185E:2803       movefigure::show()
 1100:183A       moveobj::
 1100:00A2       moveobj::moveobj(sprite far*)
 1100:000E idle  moveobj::moveobj()
 1100:0143       moveobj::~moveobj()
 1100:0B0E idle  moveobj::operator +=(moveobj far&)
 1100:0A56 idle  moveobj::operator [](int)
 1100:02B8 idle  moveobj::animate()
 1100:1704       moveobj::del(int)
 1100:065C       moveobj::del(moveobj far*)
 1100:05D5 idle  moveobj::delall()
 1100:17BE       moveobj::destroy(int)
 1EFA:000C       moveobj::lim
 185E:267B       moveobj::makesupervisor(sprite far*)
 1100:07AC       moveobj::new(moveobj far*,int)
 1100:1852       moveobj::renewframe()
 1100:08A2 idle  moveobj::renewrect()
 1100:186F       moveobj::renewtimelive()
 1100:093C       moveobj::renewxy()
 1100:09D9 idle  moveobj::set(float,float,float,float,float,float)
 1100:01CE idle  moveobj::show()
 1100:025A idle  moveobj::showall()
 1EFA:0006 idle  moveobj::speed_unit
 1EFA:0000 idle  moveobj::supervisorcounter
 1EFA:000A idle  moveobj::totalanimatedobject
 1EFA:0002 idle  moveobj::windowx
 1EFA:0004 idle  moveobj::windowy
 1100:0462 idle  movetxt::animate()
 1100:1538 idle  movetxt::show()
 102B:057F       msg(char far*,int)
 102B:02C5       msgtext(char far*,char far*,char far*,int,int)
 102B:0006       msgtextminmaxvalue(char far*,int,int,int,int)
 185E:1806       music(int,int)
 16D4:0810       newline()
 0000:781C       ofstream::ofstream()
 0000:78EF       ofstream::~ofstream()
 0AF3:06BF       ofstream::open(const char far*,int,int)
 140A:07D9       open_text_book()
 0000:79A9       ostream::ostream()
 0000:7A2E       ostream::~ostream()
 0000:7AB3       ostream::flush()
 0000:7AF8       ostream::seekp(long)
 0000:7B55       ostream::tellp()
 0D80:28DB       ostream::write(const unsigned char far*,int)
 0000:7BCB       ostream::write(const char far*,int)
 0AA5:003B idle  page(int,char)
 0BA4:0000 idle  pixel(int,int,int)
 0839:02A8       playfreq(int,int,int)
 12C9:000E       playnote(int,int,int)
 16D4:08B7 idle  printzaglav()
 185E:18D7 idle  programmeditor()
 0AA5:0077 idle  putpixel(int,int,char)
 0AA5:005A idle  putpixel(int,int,char,char,char)
 0839:0661       putrec(int,unsigned long,int)
 0839:06F1 idle  putrecord(int,unsigned long)
 0C91:08F4       random(int)
 140A:19A3       randomize()
 16D4:06E8       read_word()
 0D80:29C0       rect::rect(int,int,int,int)
 0D80:2A25       rect::rect()
 185E:2743       rect::set(int,int,int,int)
 0C91:0540       rectable::rectable()
 0C91:057F       rectable::~rectable()
 0C91:05B8       rectable::getmaxscore()
 0C91:02BE       rectable::load()
 0C91:06EF       rectable::putnewrecord(char far*,unsigned long,unsigned long,unsigned int)
 0C91:05E4       rectable::putnewrecordnamecolor(char far*,unsigned long,char)
 0C91:04A3       rectable::save()
 0C91:0004       rectable::show(int)
 185E:0051 idle  redefine_keys()
 0A1A:0064       restorepalette()
 0A1A:000B       savepalette()
 0D80:01AC       screen::screen()
 0D80:032B       screen::~screen()
 0D80:18E0       screen::operator <<(double)
 0D80:1971       screen::operator <<(int)
 0D80:1870       screen::operator <<(char far*)
 0D80:1937       screen::operator <<(unsigned int)
 0D80:18A9       screen::operator <<(unsigned long)
 0D80:19BE       screen::operator <<(char)
 0D80:0951 idle  screen::bitblt(int,int,int,int,char far*)
 0D80:05B3       screen::bitblt(int,int,int,int,char far*,char)
 0D80:09E7       screen::bitblttp(int,int,int,int,char far*)
 0D80:03C4 idle  screen::bitblt_part(int,int,int,int,int,int,int,int,char far*,char)
 0D80:1052       screen::border(int,int,int,int,int)
 0D80:10F5 idle  screen::center(int,char far*)
 0D80:1150       screen::clear(int)
 1EA8:0006 idle  screen::constructor_run
 1EA8:0000 idle  screen::countobjects
 0D80:00A8       screen::decrementpalette()
 1EA8:0002 idle  screen::doublebuffer
 0D80:0C7F idle  screen::draw_circle(int,int,int,int)
 0D80:0E33 idle  screen::draw_ellipse(int,int,int,int,int)
 0D80:0A7E idle  screen::fill_circle(int,int,int,int)
 0D80:0B58 idle  screen::fill_ellipse(int,int,int,int,int)
 0D80:27EC       screen::flip_double_buffer()
 0D80:0131       screen::fontsave()
 0D80:1191       screen::getcolorregister(unsigned char,char far*,char far*,char far*)
 0D80:11E0       screen::graphmode()
 0D80:1294       screen::inputnumber(unsigned int)
 0D80:1337       screen::inputstring(int,char far*,int)
 0D80:15FE       screen::line(int,int,int,int,char)
 0D80:17D6       screen::line_down(int,int,int,char)
 0D80:1823       screen::line_right(int,int,int,char)
 0D80:1596       screen::locate(int,int)
 0D80:15CD       screen::locatexy(int,int)
 0D80:19F5       screen::pause(int)
 0D80:1F54 idle  screen::putbignumb(long)
 0D80:1FE5 idle  screen::putbignumb(long,char)
 0D80:1A2B       screen::putbigsym(unsigned char,char,char)
 0D80:1B5A idle  screen::putbigtext(char far*,char)
 0D80:1BAB idle  screen::putbigtext(char far*,char,char)
 0D80:1BFE idle  screen::putbigtext(char far*,char,char,char)
 0D80:1E3B       screen::putnumb(unsigned long)
 0D80:1EBB       screen::putnumb(unsigned long,char)
 0D80:1C5F       screen::putpixel(int,int,int)
 0D80:1CBC idle  screen::putsymbol(int,int,unsigned char)
 0D80:1D87       screen::putsymbol(unsigned char)
 0D80:1DD1       screen::puttext(char far*)
 0D80:20E0       screen::rectangle(int,int,int,int,int)
 0D80:2086 idle  screen::rectangle(rect far&,int)
 0D80:0005       screen::scrollup(int)
 0D80:2229 idle  screen::set320x240mode()
 0C91:0930       screen::setbkcolor(char)
 0D80:2999       screen::setcolor(char)
 0D80:22B8       screen::setcolorregister(unsigned char,char,char,char)
 0D80:22EB       screen::textmode()
 0D80:230D idle  screen::update(rect)
 0D80:23C1       screen::update()
 1EA8:0007 idle  screen::videomemory
 0D80:2466       screen::wait()
 0D80:2511 idle  setcolor(int)
 0AA5:0000 idle  setcolorregister(char,char,char,char)
 0BA4:0034 idle  setpixel(int,int,unsigned char)
 0C69:0009       settings::settings()
 0C69:0047       settings::~settings()
 0C69:0104       settings::load()
 0C69:0080       settings::save()
 0000:22A9 idle  set_new_handler(void(far*)())
 0839:0188 idle  showhelppage()
 0A1A:0818 idle  show_help()
 12C9:0058       sound::sound()
 12C9:0573       sound::~sound()
 2053:0000 idle  sound::countobject
 12C9:0306       sound::load(char far*,int)
 12C9:0206       sound::play(int,int)
 12C9:0194 idle  sound::sndplay(sndstruct far&)
 12C9:014E idle  sound::soundstatus()
 12C9:02C6 idle  sound::stop()
 12C9:0512 idle  sound::unload(int)
 0839:0734       soundmodule(int)
 1328:00F3       sprite::sprite(screen far*,int)
 1328:01C9       sprite::~sprite()
 2087:0000 idle  sprite::countobject
 1328:0006 idle  sprite::create(sprite::image far&)
 1328:0914 idle  sprite::delete(int)
 1328:0281 idle  sprite::find(int)
 1328:02D7 idle  sprite::find_free()
 1328:0339       sprite::getimage(int)
 1328:0391 idle  sprite::load(char far*,unsigned long,sprite::image)
 1328:04DF       sprite::loadspriteform(char far*,sprite::image far&)
 1328:063B       sprite::modifycolor(int,char)
 1328:06D9       sprite::scroll(int,int,int)
 1328:08E9       sprite::show(int,int,int,int)
 1328:0839 idle  sprite::showdirect(int,int,int,int)
 1328:0A40       sprite::image::read(int,int)
 1328:09D5 idle  sprite::image::write(int,int,unsigned char)
 0839:06C2       startrecord()
 16D4:09A0       step_back()
 0000:7C6F       streambuf::streambuf()
 0000:7EA3       streambuf::~streambuf()
 0000:7C1E       streambuf::doallocate()
 0000:7D43       streambuf::do_sgetn(char far*,int)
 0000:7DFA       streambuf::do_sputn(const char far*,int)
 0000:7F1F       streambuf::overflow(int)
 0000:7F2E       streambuf::pbackfail(int)
 0000:80EA       streambuf::seekoff(long,seek_dir,int)
 0000:80FC       streambuf::seekpos(long,int)
 0000:7F70       streambuf::setb(char far*,char far*,int)
 0000:7F3D       streambuf::setbuf(char far*,int)
 0000:8026       streambuf::setg(char far*,char far*,char far*)
 0000:8097       streambuf::setp(char far*,char far*)
 0000:8127       streambuf::sputn(const char far*,int)
 0000:81A4       streambuf::sync()
 0000:81F7       streambuf::underflow()
 1289:0001 idle  swap(int far&,int far&)
 15AA:0434       tetris::tetris()
 185E:03E9 idle  tetris::~tetris()
 185E:0446 idle  tetris::game()
 15AA:05F6 idle  tetris::generatefigurecolor()
 0AF3:0418       tetris::load(char far*)
 140A:14CD       tetris::menu()
 15AA:000E       tetris::newfiguregenerate()
 15AA:0188       tetris::nextfigureshow()
 0AF3:05B0       tetris::save(char far*)
 0AF3:0000       tetris::settings1()
 0AF3:01BC       tetris::settings2()
 1629:0002       tetrishelp()
 0A1A:00BD       tetrisstart()
 16D4:0A79       texteditor()
 10C2:0051 idle  timer::timer(float)
 10C2:0211 idle  timer::~timer()
 1EBA:0000 idle  timer::countobjects
 0D80:2947       timer::gettotalcounter()
 1EBA:0002 idle  timer::max_freq
 1EBA:0006 idle  timer::min_freq
 10C2:00D6       timer::restart(float)
 140A:078A       tolowerregister(unsigned char far*)
 16D4:000C idle  videoeffect()
 0D80:24E2 idle  _setcolor(screen far&,int)
 0D80:249D idle  _setlocate(screen far&,int)
 0000:263D       _vector_delete_(void far*,unsigned int,unsigned long,unsigned int,...)
 0000:28C1       _vector_new_(void far*,unsigned int,unsigned long,unsigned int,...)
 22F6:0000 idle  DATASEG@
 0000:0284       DGROUP@
 1AE8:0306       E087_ENTRY
 1AE8:03C6       E087_SHORTCUT
 1AE8:0430       E087_TRAP
 0000:0000 idle  FIARQQ
 0000:0000 idle  FICRQQ
 0000:0000  Abs  FIDRQQ
 0000:0000  Abs  FIERQQ
 0000:0000  Abs  FISRQQ
 0000:0000  Abs  FIWRQQ
 0000:0000 idle  FJARQQ
 0000:0000 idle  FJCRQQ
 0000:0000  Abs  FJSRQQ
 0000:1CE5 idle  FTOL@
 0000:1CE5       F_FTOL@
 0000:1F5C idle  F_LDIV@
 0000:1F6B idle  F_LMOD@
 0000:1F63 idle  F_LUDIV@
 0000:1F73 idle  F_LUMOD@
 0000:200A idle  F_LXLSH@
 0000:4193       F_OVERFLOW@
 0000:202B idle  F_PADD@
 0000:205A idle  F_PSUB@
 0000:1EDB       F_SCOPY@
 0000:1F5C idle  LDIV@
 0000:1F6B idle  LMOD@
 0000:1F63 idle  LUDIV@
 0000:1F73 idle  LUMOD@
 0000:200A idle  LXLSH@
 0000:1F59       N_LDIV@
 0000:1F68       N_LMOD@
 0000:1F60 idle  N_LUDIV@
 0000:1F70 idle  N_LUMOD@
 0000:2007       N_LXLSH@
 0000:2388       N_LXMUL@
 0000:4193 idle  N_OVERFLOW@
 0000:2028       N_PADD@
 0000:239F       N_PCMP@
 0000:2057 idle  N_PSUB@
 0000:4193 idle  OVERFLOW@
 0000:202B idle  PADD@
 0000:205A idle  PSUB@
 0000:1EDB idle  SCOPY@
 0000:026D       _ABORT
 0000:0AC8 idle  _ADDFAR
 0000:1D11 idle  _ATEXIT
 0000:4273 idle  _ATOI
 0000:41F2       _ATOL
 0000:02E7 idle  _AUDIOCAPABILITIES
 0000:036B       _AUDIOPENDINGSTATUS
 2216:05D0       _BACKGROUND
 2216:0045 idle  _BASEACCELERAT
 1B45:0B32 idle  _BASEFREQCHANGE
 2216:0041 idle  _BASESPEED
 21B5:000E idle  _BIG
 1E0E:0805       _BIGSYMSCALE
 21B5:002F idle  _BIG_LEN
 1F01:0010 idle  _BUF
 0000:040F idle  _CHECKIN
 0000:0B83 idle  _CHECKMIDIIN
 0000:42AF       _CLOSE
 21B5:0032       _CODE13
 0000:1C86       _COS
 0000:32C2 idle  _CPRINTF
 21B5:0000       _CR
 1E0E:0807 idle  _CRTCPARMS
 2216:0049       _CURRENT_MUSIC
 21B5:009B       _CURSOR_HEI
 21B5:0099       _CURSOR_LEN
 22F6:057C       _DAYLIGHT
 13D2:009C       _DEINITDIGPAK
 0000:04E2       _DEINITDP
 13D2:0266       _DEINITMIDPAK
 0000:0C2D       _DEINITMP
 1D98:0004 idle  _DIGITS
 0000:0BB9       _DIGPAKAVAILABLE
 0000:02ED idle  _DIGPAKIDENTITYSTRING
 0000:0288 idle  _DIGPLAY
 0000:02C1 idle  _DIGPLAY2
 0000:02D4 idle  _DIGPLAYLOOP
 22F6:04FF       _DIRECTVIDEO
 0000:57F8       _DOSTOUNIX
 2089:001E idle  _END_OF_FILE
 22F6:053E       _ENVIRON
 0000:4315       _EOF
 22F6:007F       _ERRNO
 0000:0C19 idle  _EVENTIDADDRESS
 0000:1E50       _EXIT
 0000:0819 idle  _FARCAT
 0000:0959 idle  _FARCOMPARE
 0000:0800 idle  _FARCOP
 0000:3613       _FARFREE
 0000:0907 idle  _FARLEN
 0000:3727       _FARMALLOC
 0000:0AB0 idle  _FARMOV
 0000:388B idle  _FARREALLOC
 0000:439E       _FCLOSE
 0000:445D       _FFLUSH
 0000:086E idle  _FFREE
 0000:4C55 idle  _FGETC
 0000:4D4A idle  _FGETCHAR
 0000:1EA7       _FGETPOS
 2089:00FE       _FILESIZE
 2089:0048 idle  _FILE_BUF
 0000:0689       _FLOAD
 0000:0720       _FLOADPARA
 0000:4531       _FLUSHALL
 0000:083A idle  _FMALLOC
 1E0E:0000 idle  _FONT
 1E0E:0005       _FONT8X8
 0000:4784       _FOPEN
 0000:47C0       _FPRINTF
 0000:509F idle  _FPUTC
 0000:5241 idle  _FPUTCHAR
 0000:48DE       _FREAD
 0000:3613       _FREE
 0000:49FC       _FSEEK
 0000:4A83       _FTELL
 1B45:0B39 idle  _FUNCTIONAL_KEYS
 0000:3AC4       _GETCH
 0000:3AF6 idle  _GETCHE
 0000:1EF7       _GETDATE
 0000:4D60       _GETENV
 0000:07E9 idle  _GETKEY
 0000:3B65       _GETTEXT
 0000:1F11       _GETTIME
 0000:08AF idle  _GETTIMERINTERRUPTVECTOR
 0000:1F2B       _GETVECT
 0000:0987 idle  _IFEXISTS
 2089:008E       _IFL
 13D2:0066       _INITDIGPAK
 0000:0471       _INITDP
 13D2:020D       _INITMIDPAK
 0000:0C43       _INITMP
 1EB0:000A idle  _INT08H_OLD
 0000:3C1F       _IOCTL
 0000:20E7       _ISATTY
 1F01:1398 idle  _ISPLAY
 1B45:0502 idle  _ISPLAY1
 1B45:0504 idle  _ISPLAY2
 0000:3C4F       _KBHIT
 1DBA:000E       _KEYB
 2216:025A idle  _KEYDOWNPRESS
 0000:07D9 idle  _KEYSTAT
 13D2:000C       _LOADDIGPAK
 13D2:0130       _LOADMIDPAK
 0000:21AF       _LSEEK
 185E:1BA9       _MAIN
 0000:0B07 idle  _MAKEFP
 0000:0B14 idle  _MAKESEG
 0000:371D       _MALLOC
 1E0E:0823 idle  _MANIP
 0000:02AE idle  _MASSAGEAUDIO
 0000:18D5       _MATHERR
 2216:003D idle  _MAXSCORE
 0000:08EB idle  _MDELETE
 1404:0007       _MEMALLOC
 0000:4DDC       _MEMCPY
 1404:003F       _MEMFREE
 0000:4E2E       _MEMSET
 2089:0104 idle  _METHOD_BACK
 2089:0102 idle  _METHOD_NEXT
 0000:056C idle  _MFCLOSE
 0000:04F8 idle  _MFOPEN
 0000:0584 idle  _MFPOS
 0000:05B5 idle  _MFREAD
 0000:0596 idle  _MFSEEK
 0000:061F idle  _MFWRITE
 0000:0BD1 idle  _MIDIAWAKE
 0000:0BCB idle  _MIDISLEEP
 0000:0B5B       _MIDISTOP
 0000:0B61 idle  _MIDPAKCLOCK
 0000:0B67 idle  _MIDPAKCLOCKADDRESS
 1D24:000C idle  _MODE
 1D24:000E idle  _MODE_PAUSE
 1B45:0B33 idle  _MODE_PLAY
 21B5:0030       _MODE_PRINTER
 21B5:0031       _MODE_RANDOMCHANGECHAPTER
 1D24:0010 idle  _MODE_READY_PAUSE
 1B45:0B35 idle  _MODE_REC
 2216:0444 idle  _MOUSE
 2216:05E0 idle  _MOVEFIG
 0000:3C68       _MOVETEXT
 2089:014A idle  _NEED_FIND
 2159:000C idle  _NEXTFIGURELIST
 0000:03E0 idle  _NULLSOUND
 1B45:1705 idle  _OLD_KEYS
 0000:4E8F       _OPEN
 21B5:0006       _PAUSE
 0000:038F       _PENDINGADDRESS
 1D19:000A idle  _PI
 0000:0B1E       _PLAYSEQUENCE
 1B45:0B37 idle  _PLAY_COUNTER
 0000:0C0D idle  _POLLMIDPAK
 0000:0358       _POSTAUDIOPENDING
 0000:19CD       _POW
 0000:18C3       _POW10
 0000:3D0C       _PUTCH
 0000:3BC2       _PUTTEXT
 0000:23D8       _RAND
 0000:5564       _READ
 0000:3884 idle  _REALLOC
 1B45:0530 idle  _REAL_REC
 1B45:0532 idle  _RECORD
 2216:004B       _RECTABLE
 0000:0B3F       _REGISTERXMIDI
 0000:0BFB idle  _REGISTERXMIDIFILE
 0000:0BE3 idle  _RELATIVEVOLUME
 0000:0B71 idle  _REMAPCHANNEL
 0000:0348 idle  _REPORTCALLBACKADDRESS
 0000:0BBF idle  _REPORTCALLBACKTRIGGER
 0000:03DA       _REPORTDMAC
 0000:0315 idle  _REPORTSAMPLE
 0000:0395 idle  _REPORTSEMAPHOREADDRESS
 0000:0C1F idle  _REPORTSEQUENCENUMBER
 0000:039D idle  _REPORTVERSIONNUMBER
 0000:0BC5 idle  _RESETCALLBACKCOUNTER
 0000:0BD7 idle  _RESUMEPLAYING
 2089:0311 idle  _RUNLINE3
 2089:0000       _RUNLX
 2089:0106 idle  _RUS1
 2089:0127 idle  _RUS2
 2089:0148 idle  _RUS_SIZE
 1D98:006B idle  _SCALEX_TEXT
 1D98:006D idle  _SCALEY_TEXT
 2216:043A       _SCR
 0000:0B2D idle  _SEGUESEQUENCE
 0000:0BDD       _SEQUENCESTATUS
 0000:0333 idle  _SETAUDIOHARDWARE
 0000:03CB       _SETBACKFILLMODE
 0000:4106       _SETBLOCK
 0000:031B idle  _SETCALLBACKADDRESS
 0000:2441       _SETDATE
 0000:4E03       _SETMEM
 0000:0380 idle  _SETPLAYMODE
 0000:03BC idle  _SETRECORDMODE
 0000:0BE9       _SETRELATIVEVOLUME
 0000:0371 idle  _SETSTEREOPAN
 0000:245D       _SETTIME
 0000:03AD idle  _SETTIMERDIVISORRATE
 0000:08BD idle  _SETTIMERINTERRUPTVECTOR
 2216:0006       _SETTINGS
 0000:5567       _SETVBUF
 0000:1F41       _SETVECT
 21B5:000C       _SHOW_DEBUG
 21B5:000A idle  _SHOW_DEBUG_TIME
 2089:0004       _SHOW_TASK_LIST
 0000:1B67       _SIN
 1B45:0506 idle  _SND1
 1B45:0512 idle  _SND2
 2216:096C idle  _SONG
 2216:0994 idle  _SONG_LEN
 2216:0455       _SOUND
 0000:02A8 idle  _SOUNDSTATUS
 2216:0258 idle  _SOUNDVOLUME
 0000:56D9       _SPRINTF
 2216:05C0       _SPRITE
 1D96:0014       _SPRITEBOX
 1D96:0004       _SPRITEFIGURE
 0000:1906       _SQRT
 0000:23C0       _SRAND
 21B5:0074 idle  _START_CHAPTER_POSITION
 2089:0006       _STEPRUNLX
 0000:2578 idle  _STIME
 0000:03A7 idle  _STOPNEXTLOOP
 0000:032D idle  _STOPSOUND
 0000:572A       _STRCAT
 0000:576E       _STRCPY
 0000:579C       _STRLEN
 0000:57C2       _STRNCPY
 2089:000A idle  _STR_FIND
 21B5:0004       _SYMBOLCOUNT
 1D98:002C idle  _SYMBOL_DVOE
 1D98:0056 idle  _SYMBOL_MINUS
 1D98:0041 idle  _SYMBOL_POINT
 1B45:0BC1 idle  _TABLE0
 1B45:0F81 idle  _TABLE1
 1B45:1341 idle  _TABLE2
 0000:0A6C idle  _TCOLOR
 2216:025C       _TETRIS
 0000:0A9B idle  _TEXTCURSOR
 2089:0008       _TEXT_LOOP
 0000:25BF       _TIME
 1EB0:0000       _TIMER
 22F6:0578       _TIMEZONE
 0000:09AB idle  _TPRINT
 0000:0C13 idle  _TRIGGERCOUNTADDRESS
 22F6:0570 idle  _TZNAME
 0000:5B51       _TZSET
 0000:0921 idle  _UCASE
 0000:3B27 idle  _UNGETCH
 0000:5939       _UNIXTODOS
 0000:261E       _UNLINK
 13D2:00D9       _UNLOADDIGPAK
 13D2:02A8       _UNLOADMIDPAK
 0000:03FB idle  _VERIFYDMA
 0000:5702 idle  _VSPRINTF
 0000:034E idle  _WAITSOUND
 1E0E:081B       _WAIT_FLAG1
 1E0E:081F       _WAIT_FLAG2
 0000:41B6 idle  _WHEREX
 0000:41D2 idle  _WHEREY
 21B5:0033       _WORD
 21B5:016E idle  _WORDS
 21B5:00E6 idle  _WORDS_GOD
 21B5:021E idle  _WORDS_IISUS
 21B5:0002       _WORD_COUNT
 21B5:0073       _WORD_LEN
 0000:6016       _WRITE
 0000:0886 idle  _WRITELN
 21B5:0078       _ZAGLAV
 22F6:00A0       __8087
 0000:1000 idle  __AHINCR
 0000:000C  Abs  __AHSHIFT
 22F6:00B6       __ATEXITCNT
 22F6:00B8       __ATEXITTBL
 0000:39B4       __BRK
 22F6:0089       __BRKLVL
 22F6:006B idle  __C0ARGC
 22F6:006D idle  __C0ARGV
 0000:33C2 idle  __C0CRTINIT
 22F6:0071       __C0ENVIRON
 22F6:053D       __CCHAR
 0000:1E7F idle  __CEXIT
 22F6:053C       __CFLAG
 0000:0158       __CHECKNULL
 0000:428B       __CHMOD
 0000:0145       __CLEANUP
 0000:42EA       __CLOSE
 0000:3130       __CPUTN
 0000:33E6 idle  __CRTINIT
 22F6:0138       __CTYPE
 0000:0000  Abs  __CVTFAK
 0000:1E94 idle  __C_EXIT
 22F6:00B4       __DEFAULT87
 22F6:0406       __DOSERRNO
 0000:20CE       __DOSERROR
 22F6:0408 idle  __DOSERRORTOSV
 0000:1D5E       __DOS_GETFILEATTR
 0000:1DA9       __DOS_GETVECT
 0000:1D85 idle  __DOS_SETFILEATTR
 0000:1DBF idle  __DOS_SETVECT
 2358:0000       __EMU
 22F6:0075       __ENVLNG
 22F6:0077       __ENVSEG
 22F6:0079       __ENVSIZE
 0000:1E66       __EXIT
 22F6:023A       __EXITBUF
 22F6:023E       __EXITFOPEN
 22F6:0242 idle  __EXITOPEN
 0000:1951 idle  __EXPL
 0000:4C36       __FGETC
 0000:8087 idle  __FLOATCONVERT
 0000:60A2       __FMEMCPY
 22F6:0400       __FMODE
 0000:171A       __FPERROR
 22F6:0404       __FPSTKLEN
 0000:0ECD idle  __FPUINT
 0000:507C idle  __FPUTC
 0000:525F       __FPUTN
 0000:60C9       __FSTRCMP
 0000:472B idle  __GETFP
 22F6:0085       __HEAPBASE
 22F6:008D       __HEAPTOP
 22D4:000A       __HUGE_DBLE
 22D4:0006 idle  __HUGE_FLT
 22D4:0012 idle  __HUGE_LDBLE
 22D4:001C idle  __INDEFINITE
 22F6:005B idle  __INT0VECTOR
 22F6:005F idle  __INT4VECTOR
 22F6:0063 idle  __INT5VECTOR
 22F6:0067 idle  __INT6VECTOR
 0000:2088       __IOERROR
 0000:5D71       __ISDST
 22F6:00B1       __LDT
 0000:0ED1       __LDTRUNC
 0000:20FF       __LONGTOA
 0000:1BC6       __MATHERR
 22D6:000A       __MATHWHY
 0000:21E5       __MKNAME
 0000:0286 idle  __MMODEL
 22F6:0556 idle  __MONTHDAY
 22F6:0478       __NEW_HANDLER
 0000:4C52 idle  __NFGETC
 22F6:03D6       __NFILE
 0000:3AF3 idle  __NGETCHE
 22F6:0402       __NOTUMASK
 0000:3B24 idle  __NUNGETCH
 0000:5020       __OPEN
 22F6:03D8       __OPENFD
 0000:4653 idle  __OPENFP
 22F6:007D idle  __OSMAJOR
 22F6:007E idle  __OSMINOR
 22F6:007D idle  __OSVERSION
 0000:17EE       __POW10
 22F6:00B0       __PROTECTED
 22F6:007B       __PSP
 0000:2405       __READ
 0000:3D2A       __REALCVT
 22F6:0592       __REALCVTVECTOR
 0000:01AE       __RESTOREZERO
 0000:3A06       __SBRK
 22F6:0596 idle  __SCANTODVECTOR
 0000:3E9B       __SCREENIO
 0000:3F81       __SCROLL
 0000:0000 idle  __SETENVP__
 0000:2479       __SETUPIO
 22F6:0081 idle  __STARTTIME
 22F6:0484       __STKLEN
 0000:30F5       __STPCPY
 22F6:0246       __STREAMS
 0000:0159       __TERMINATE
 22D4:0020 idle  __TINY_LDBLE
 0000:2249 idle  __TMPNAM
 0000:0000 idle  __TURBOCRT
 0000:0000  Abs  __TURBOCVT
 0000:8087  Abs  __TURBOFLOAT
 0000:2188       __UTOA
 0000:3EEA       __VALIDATEXY
 22F6:007D       __VERSION
 22F6:04F0       __VIDEO
 0000:332E       __VIDEOINT
 0000:2B78       __VPRINTER
 0000:3030       __VPTR
 0000:306E       __VRAM
 0000:41A5       __WHEREXY
 0000:5FC7       __WRITE
 22F6:04EE       __WSCROLL
 0000:1507       __XCVT
 0000:6019       __XFCLOSE
 0000:6061       __XFFLUSH
 0000:34D3 idle  ___FIRST
 0000:0DFC idle  ___FPRESET
 0000:34D5 idle  ___LAST
 0000:5475       ___READ
 0000:34D7 idle  ___ROVER
 22F6:0480       ___SIGNALPTR
 0000:5E57       ___WRITE

  Address         Publics by Value

 0000:0000  Abs  FIWRQQ
 0000:0000  Abs  FIERQQ
 0000:0000  Abs  FIDRQQ
 0000:0000  Abs  __TURBOCVT
 0000:0000 idle  FIARQQ
 0000:0000 idle  FICRQQ
 0000:0000  Abs  FISRQQ
 0000:0000 idle  FJARQQ
 0000:0000 idle  FJCRQQ
 0000:0000  Abs  FJSRQQ
 0000:0000 idle  __TURBOCRT
 0000:0000  Abs  __CVTFAK
 0000:0000 idle  __SETENVP__
 0000:000C  Abs  __AHSHIFT
 0000:0145       __CLEANUP
 0000:0158       __CHECKNULL
 0000:0159       __TERMINATE
 0000:01AE       __RESTOREZERO
 0000:026D       _ABORT
 0000:0284       DGROUP@
 0000:0286 idle  __MMODEL
 0000:0288 idle  _DIGPLAY
 0000:02A8 idle  _SOUNDSTATUS
 0000:02AE idle  _MASSAGEAUDIO
 0000:02C1 idle  _DIGPLAY2
 0000:02D4 idle  _DIGPLAYLOOP
 0000:02E7 idle  _AUDIOCAPABILITIES
 0000:02ED idle  _DIGPAKIDENTITYSTRING
 0000:0315 idle  _REPORTSAMPLE
 0000:031B idle  _SETCALLBACKADDRESS
 0000:032D idle  _STOPSOUND
 0000:0333 idle  _SETAUDIOHARDWARE
 0000:0348 idle  _REPORTCALLBACKADDRESS
 0000:034E idle  _WAITSOUND
 0000:0358       _POSTAUDIOPENDING
 0000:036B       _AUDIOPENDINGSTATUS
 0000:0371 idle  _SETSTEREOPAN
 0000:0380 idle  _SETPLAYMODE
 0000:038F       _PENDINGADDRESS
 0000:0395 idle  _REPORTSEMAPHOREADDRESS
 0000:039D idle  _REPORTVERSIONNUMBER
 0000:03A7 idle  _STOPNEXTLOOP
 0000:03AD idle  _SETTIMERDIVISORRATE
 0000:03BC idle  _SETRECORDMODE
 0000:03CB       _SETBACKFILLMODE
 0000:03DA       _REPORTDMAC
 0000:03E0 idle  _NULLSOUND
 0000:03FB idle  _VERIFYDMA
 0000:040F idle  _CHECKIN
 0000:0471       _INITDP
 0000:04E2       _DEINITDP
 0000:04F8 idle  _MFOPEN
 0000:056C idle  _MFCLOSE
 0000:0584 idle  _MFPOS
 0000:0596 idle  _MFSEEK
 0000:05B5 idle  _MFREAD
 0000:061F idle  _MFWRITE
 0000:0689       _FLOAD
 0000:0720       _FLOADPARA
 0000:07D9 idle  _KEYSTAT
 0000:07E9 idle  _GETKEY
 0000:0800 idle  _FARCOP
 0000:0819 idle  _FARCAT
 0000:083A idle  _FMALLOC
 0000:086E idle  _FFREE
 0000:0886 idle  _WRITELN
 0000:08AF idle  _GETTIMERINTERRUPTVECTOR
 0000:08BD idle  _SETTIMERINTERRUPTVECTOR
 0000:08EB idle  _MDELETE
 0000:0907 idle  _FARLEN
 0000:0921 idle  _UCASE
 0000:0959 idle  _FARCOMPARE
 0000:0987 idle  _IFEXISTS
 0000:09AB idle  _TPRINT
 0000:0A6C idle  _TCOLOR
 0000:0A9B idle  _TEXTCURSOR
 0000:0AB0 idle  _FARMOV
 0000:0AC8 idle  _ADDFAR
 0000:0B07 idle  _MAKEFP
 0000:0B14 idle  _MAKESEG
 0000:0B1E       _PLAYSEQUENCE
 0000:0B2D idle  _SEGUESEQUENCE
 0000:0B3F       _REGISTERXMIDI
 0000:0B5B       _MIDISTOP
 0000:0B61 idle  _MIDPAKCLOCK
 0000:0B67 idle  _MIDPAKCLOCKADDRESS
 0000:0B71 idle  _REMAPCHANNEL
 0000:0B83 idle  _CHECKMIDIIN
 0000:0BB9       _DIGPAKAVAILABLE
 0000:0BBF idle  _REPORTCALLBACKTRIGGER
 0000:0BC5 idle  _RESETCALLBACKCOUNTER
 0000:0BCB idle  _MIDISLEEP
 0000:0BD1 idle  _MIDIAWAKE
 0000:0BD7 idle  _RESUMEPLAYING
 0000:0BDD       _SEQUENCESTATUS
 0000:0BE3 idle  _RELATIVEVOLUME
 0000:0BE9       _SETRELATIVEVOLUME
 0000:0BFB idle  _REGISTERXMIDIFILE
 0000:0C0D idle  _POLLMIDPAK
 0000:0C13 idle  _TRIGGERCOUNTADDRESS
 0000:0C19 idle  _EVENTIDADDRESS
 0000:0C1F idle  _REPORTSEQUENCENUMBER
 0000:0C2D       _DEINITMP
 0000:0C43       _INITMP
 0000:0DFC idle  ___FPRESET
 0000:0ECD idle  __FPUINT
 0000:0ED1       __LDTRUNC
 0000:1000 idle  __AHINCR
 0000:1507       __XCVT
 0000:171A       __FPERROR
 0000:17EE       __POW10
 0000:18C3       _POW10
 0000:18D5       _MATHERR
 0000:1906       _SQRT
 0000:1951 idle  __EXPL
 0000:19CD       _POW
 0000:1B67       _SIN
 0000:1BC6       __MATHERR
 0000:1C86       _COS
 0000:1CE5       F_FTOL@
 0000:1CE5 idle  FTOL@
 0000:1D11 idle  _ATEXIT
 0000:1D45       operator delete(void far*)
 0000:1D5E       __DOS_GETFILEATTR
 0000:1D85 idle  __DOS_SETFILEATTR
 0000:1DA9       __DOS_GETVECT
 0000:1DBF idle  __DOS_SETVECT
 0000:1E50       _EXIT
 0000:1E66       __EXIT
 0000:1E7F idle  __CEXIT
 0000:1E94 idle  __C_EXIT
 0000:1EA7       _FGETPOS
 0000:1EDB       F_SCOPY@
 0000:1EDB idle  SCOPY@
 0000:1EF7       _GETDATE
 0000:1F11       _GETTIME
 0000:1F2B       _GETVECT
 0000:1F41       _SETVECT
 0000:1F59       N_LDIV@
 0000:1F5C idle  LDIV@
 0000:1F5C idle  F_LDIV@
 0000:1F60 idle  N_LUDIV@
 0000:1F63 idle  F_LUDIV@
 0000:1F63 idle  LUDIV@
 0000:1F68       N_LMOD@
 0000:1F6B idle  F_LMOD@
 0000:1F6B idle  LMOD@
 0000:1F70 idle  N_LUMOD@
 0000:1F73 idle  LUMOD@
 0000:1F73 idle  F_LUMOD@
 0000:2007       N_LXLSH@
 0000:200A idle  LXLSH@
 0000:200A idle  F_LXLSH@
 0000:2028       N_PADD@
 0000:202B idle  F_PADD@
 0000:202B idle  PADD@
 0000:2057 idle  N_PSUB@
 0000:205A idle  F_PSUB@
 0000:205A idle  PSUB@
 0000:2088       __IOERROR
 0000:20CE       __DOSERROR
 0000:20E7       _ISATTY
 0000:20FF       __LONGTOA
 0000:2188       __UTOA
 0000:21AF       _LSEEK
 0000:21E5       __MKNAME
 0000:2249 idle  __TMPNAM
 0000:22A9 idle  set_new_handler(void(far*)())
 0000:22DA       operator new(unsigned int)
 0000:2323       operator new(unsigned long)
 0000:2388       N_LXMUL@
 0000:239F       N_PCMP@
 0000:23C0       _SRAND
 0000:23D8       _RAND
 0000:2405       __READ
 0000:2441       _SETDATE
 0000:245D       _SETTIME
 0000:2479       __SETUPIO
 0000:2578 idle  _STIME
 0000:25BF       _TIME
 0000:261E       _UNLINK
 0000:263D       _vector_delete_(void far*,unsigned int,unsigned long,unsigned int,...)
 0000:28C1       _vector_new_(void far*,unsigned int,unsigned long,unsigned int,...)
 0000:2B78       __VPRINTER
 0000:3030       __VPTR
 0000:306E       __VRAM
 0000:30F5       __STPCPY
 0000:3130       __CPUTN
 0000:32C2 idle  _CPRINTF
 0000:332E       __VIDEOINT
 0000:33C2 idle  __C0CRTINIT
 0000:33E6 idle  __CRTINIT
 0000:34D3 idle  ___FIRST
 0000:34D5 idle  ___LAST
 0000:34D7 idle  ___ROVER
 0000:3613       _FARFREE
 0000:3613       _FREE
 0000:371D       _MALLOC
 0000:3727       _FARMALLOC
 0000:3884 idle  _REALLOC
 0000:388B idle  _FARREALLOC
 0000:39B4       __BRK
 0000:3A06       __SBRK
 0000:3AC4       _GETCH
 0000:3AF3 idle  __NGETCHE
 0000:3AF6 idle  _GETCHE
 0000:3B24 idle  __NUNGETCH
 0000:3B27 idle  _UNGETCH
 0000:3B65       _GETTEXT
 0000:3BC2       _PUTTEXT
 0000:3C1F       _IOCTL
 0000:3C4F       _KBHIT
 0000:3C68       _MOVETEXT
 0000:3D0C       _PUTCH
 0000:3D2A       __REALCVT
 0000:3E9B       __SCREENIO
 0000:3EEA       __VALIDATEXY
 0000:3F81       __SCROLL
 0000:4106       _SETBLOCK
 0000:4193       F_OVERFLOW@
 0000:4193 idle  N_OVERFLOW@
 0000:4193 idle  OVERFLOW@
 0000:41A5       __WHEREXY
 0000:41B6 idle  _WHEREX
 0000:41D2 idle  _WHEREY
 0000:41F2       _ATOL
 0000:4273 idle  _ATOI
 0000:428B       __CHMOD
 0000:42AF       _CLOSE
 0000:42EA       __CLOSE
 0000:4315       _EOF
 0000:439E       _FCLOSE
 0000:445D       _FFLUSH
 0000:4531       _FLUSHALL
 0000:4653 idle  __OPENFP
 0000:472B idle  __GETFP
 0000:4784       _FOPEN
 0000:47C0       _FPRINTF
 0000:48DE       _FREAD
 0000:49FC       _FSEEK
 0000:4A83       _FTELL
 0000:4C36       __FGETC
 0000:4C52 idle  __NFGETC
 0000:4C55 idle  _FGETC
 0000:4D4A idle  _FGETCHAR
 0000:4D60       _GETENV
 0000:4DDC       _MEMCPY
 0000:4E03       _SETMEM
 0000:4E2E       _MEMSET
 0000:4E8F       _OPEN
 0000:5020       __OPEN
 0000:507C idle  __FPUTC
 0000:509F idle  _FPUTC
 0000:5241 idle  _FPUTCHAR
 0000:525F       __FPUTN
 0000:5475       ___READ
 0000:5564       _READ
 0000:5567       _SETVBUF
 0000:56D9       _SPRINTF
 0000:5702 idle  _VSPRINTF
 0000:572A       _STRCAT
 0000:576E       _STRCPY
 0000:579C       _STRLEN
 0000:57C2       _STRNCPY
 0000:57F8       _DOSTOUNIX
 0000:5939       _UNIXTODOS
 0000:5B51       _TZSET
 0000:5D71       __ISDST
 0000:5E57       ___WRITE
 0000:5FC7       __WRITE
 0000:6016       _WRITE
 0000:6019       __XFCLOSE
 0000:6061       __XFFLUSH
 0000:60A2       __FMEMCPY
 0000:60C9       __FSTRCMP
 0000:60FC       filebuf::close()
 0000:61AA       filebuf::filebuf()
 0000:62C2       filebuf::~filebuf()
 0000:6364       filebuf::overflow(int)
 0000:64BE       filebuf::open(const char far*,int,int)
 0000:6626       filebuf::setbuf(char far*,int)
 0000:66E9       filebuf::seekoff(long,seek_dir,int)
 0000:68A5       filebuf::sync()
 0000:6A46       filebuf::underflow()
 0000:6C04       fstreambase::close()
 0000:6C49       fstreambase::fstreambase()
 0000:6CF8       fstreambase::fstreambase(const char far*,int,int)
 0000:6DC4       fstreambase::~fstreambase()
 0000:6E52       fstreambase::open(const char far*,int,int)
 0000:6EBF       ifstream::ifstream()
 0000:6F92       ifstream::ifstream(const char far*,int,int)
 0000:7054 idle  ifstream::ifstream(const unsigned char far*,int,int)
 0000:713A       ifstream::~ifstream()
 0000:71F4       istream::istream()
 0000:7282       istream::ipfx(int)
 0000:7344       istream::~istream()
 0000:73BC       istream::eatwhite()
 0000:7499       istream::getline(char far*,int,char)
 0000:75D9       istream::read(char far*,int)
 0000:76EC       istream::seekg(long,seek_dir)
 0000:774C       istream::seekg(long)
 0000:77A9       istream::tellg()
 0000:781C       ofstream::ofstream()
 0000:78EF       ofstream::~ofstream()
 0000:79A9       ostream::ostream()
 0000:7A2E       ostream::~ostream()
 0000:7AB3       ostream::flush()
 0000:7AF8       ostream::seekp(long)
 0000:7B55       ostream::tellp()
 0000:7BCB       ostream::write(const char far*,int)
 0000:7C1E       streambuf::doallocate()
 0000:7C6F       streambuf::streambuf()
 0000:7D43       streambuf::do_sgetn(char far*,int)
 0000:7DFA       streambuf::do_sputn(const char far*,int)
 0000:7EA3       streambuf::~streambuf()
 0000:7F1F       streambuf::overflow(int)
 0000:7F2E       streambuf::pbackfail(int)
 0000:7F3D       streambuf::setbuf(char far*,int)
 0000:7F70       streambuf::setb(char far*,char far*,int)
 0000:8026       streambuf::setg(char far*,char far*,char far*)
 0000:8087  Abs  __TURBOFLOAT
 0000:8087 idle  __FLOATCONVERT
 0000:8097       streambuf::setp(char far*,char far*)
 0000:80EA       streambuf::seekoff(long,seek_dir,int)
 0000:80FC       streambuf::seekpos(long,int)
 0000:8127       streambuf::sputn(const char far*,int)
 0000:81A4       streambuf::sync()
 0000:81F7       streambuf::underflow()
 0000:8231       ios::clear(int)
 0000:8272       ios::ios()
 0000:82BE       ios::~ios()
 0000:8315       ios::init(streambuf far*)
 0000:8370       ios::setstate(int)
 0839:000D idle  getfunctionalkeyscan(int)
 0839:0061 idle  getfunctionalkeyscan2(int)
 0839:00B5 idle  keybfunctional(int)
 0839:0143 idle  keybfunctionalclear(int)
 0839:0188 idle  showhelppage()
 0839:02A8       playfreq(int,int,int)
 0839:0323 idle  generatesound()
 0839:0661       putrec(int,unsigned long,int)
 0839:06C2       startrecord()
 0839:06F1 idle  putrecord(int,unsigned long)
 0839:0734       soundmodule(int)
 0839:1542       keyboard::operator [](char)
 098F:000E idle  drawclock2()
 098F:0104 idle  drawstrelka(int,int,int,int,int,int,int,int,double)
 098F:03FD       drawclock()
 0A1A:000B       savepalette()
 0A1A:0064       restorepalette()
 0A1A:00BD       tetrisstart()
 0A1A:0818 idle  show_help()
 0AA5:0000 idle  setcolorregister(char,char,char,char)
 0AA5:003B idle  page(int,char)
 0AA5:005A idle  putpixel(int,int,char,char,char)
 0AA5:0077 idle  putpixel(int,int,char)
 0AA5:00C9 idle  fatal_(char far*)
 0AA5:00E6 idle  drawbmp(int,int)
 0AB5:0005       fonteditor(char far*)
 0AF3:0000       tetris::settings1()
 0AF3:01BC       tetris::settings2()
 0AF3:0418       tetris::load(char far*)
 0AF3:05B0       tetris::save(char far*)
 0AF3:0657       ifstream::open(const char far*,int,int)
 0AF3:0692       ios::operator !()
 0AF3:06BF       ofstream::open(const char far*,int,int)
 0AF3:06FA       ios::fail()
 0B65:0003       figure::figure()
 0B65:0074       figure::show()
 0B65:00A6       figure::show(int,int)
 0B65:01BA       figure::show(int)
 0B65:0291       figure::check()
 0BA4:0000 idle  pixel(int,int,int)
 0BA4:0034 idle  setpixel(int,int,unsigned char)
 0BA4:009C idle  graph_draw_digit(int,int,int)
 0BA4:0134 idle  graph_draw_symbol(int,int,char,int)
 0BA4:0151 idle  graph_draw_text(int,int,char far*,int)
 0BA4:01B3 idle  graph_draw_image(int,int,int,int,char far*)
 0BA4:023B       graph_draw_symbol(int,int,char)
 0BA4:02D0       graph_draw_num(int,int,unsigned long)
 0BA4:0346 idle  graph_horz_line(int,int,int)
 0BA4:0390 idle  graph_vert_line(int,int,int)
 0BE1:000A       glass::glass()
 0BE1:0089 idle  glass::showbackground(int)
 0BE1:00DA       glass::~glass()
 0BE1:0131       glass::clear()
 0BE1:0190       glass::make(unsigned int,unsigned int)
 0BE1:021F       glass::read(int,int)
 0BE1:0286       drawglassbox(int,int,int,int,char)
 0BE1:04C4       glass::show()
 0BE1:058D idle  glass::showborder()
 0BE1:064F       glass::write(int,int,unsigned int)
 0BE1:06B0       glass::load(char far*)
 0BE1:07BB       glass::save(char far*)
 0C69:0009       settings::settings()
 0C69:0047       settings::~settings()
 0C69:0080       settings::save()
 0C69:0104       settings::load()
 0C91:0004       rectable::show(int)
 0C91:02BE       rectable::load()
 0C91:04A3       rectable::save()
 0C91:0540       rectable::rectable()
 0C91:057F       rectable::~rectable()
 0C91:05B8       rectable::getmaxscore()
 0C91:05E4       rectable::putnewrecordnamecolor(char far*,unsigned long,char)
 0C91:06EF       rectable::putnewrecord(char far*,unsigned long,unsigned long,unsigned int)
 0C91:08F4       random(int)
 0C91:0930       screen::setbkcolor(char)
 0D26:0007 idle  keyboard::check(unsigned char)
 0D26:0035 idle  keyboard::anykey()
 0D26:0080       keyboard::readscan(unsigned long)
 0D26:0125       keyboard::clear()
 0D26:015F idle  keyboard::keyboard()
 0D26:022D idle  keyboard::~keyboard()
 0D26:027A idle  keyboard::int09h_new()
 0D26:0494       keyboard::set(char,char)
 0D26:04C4       keyboard::setinputmode(int)
 0D26:04FB       keyboard::superinput()
 0D26:0527       keyboard::standartinput()
 0D80:0005       screen::scrollup(int)
 0D80:00A8       screen::decrementpalette()
 0D80:0131       screen::fontsave()
 0D80:01AC       screen::screen()
 0D80:032B       screen::~screen()
 0D80:03C4 idle  screen::bitblt_part(int,int,int,int,int,int,int,int,char far*,char)
 0D80:05B3       screen::bitblt(int,int,int,int,char far*,char)
 0D80:0951 idle  screen::bitblt(int,int,int,int,char far*)
 0D80:09E7       screen::bitblttp(int,int,int,int,char far*)
 0D80:0A7E idle  screen::fill_circle(int,int,int,int)
 0D80:0B58 idle  screen::fill_ellipse(int,int,int,int,int)
 0D80:0C7F idle  screen::draw_circle(int,int,int,int)
 0D80:0E33 idle  screen::draw_ellipse(int,int,int,int,int)
 0D80:1052       screen::border(int,int,int,int,int)
 0D80:10F5 idle  screen::center(int,char far*)
 0D80:1150       screen::clear(int)
 0D80:1191       screen::getcolorregister(unsigned char,char far*,char far*,char far*)
 0D80:11E0       screen::graphmode()
 0D80:1294       screen::inputnumber(unsigned int)
 0D80:1337       screen::inputstring(int,char far*,int)
 0D80:1596       screen::locate(int,int)
 0D80:15CD       screen::locatexy(int,int)
 0D80:15FE       screen::line(int,int,int,int,char)
 0D80:17D6       screen::line_down(int,int,int,char)
 0D80:1823       screen::line_right(int,int,int,char)
 0D80:1870       screen::operator <<(char far*)
 0D80:18A9       screen::operator <<(unsigned long)
 0D80:18E0       screen::operator <<(double)
 0D80:1937       screen::operator <<(unsigned int)
 0D80:1971       screen::operator <<(int)
 0D80:19BE       screen::operator <<(char)
 0D80:19F5       screen::pause(int)
 0D80:1A2B       screen::putbigsym(unsigned char,char,char)
 0D80:1B5A idle  screen::putbigtext(char far*,char)
 0D80:1BAB idle  screen::putbigtext(char far*,char,char)
 0D80:1BFE idle  screen::putbigtext(char far*,char,char,char)
 0D80:1C5F       screen::putpixel(int,int,int)
 0D80:1CBC idle  screen::putsymbol(int,int,unsigned char)
 0D80:1D87       screen::putsymbol(unsigned char)
 0D80:1DD1       screen::puttext(char far*)
 0D80:1E3B       screen::putnumb(unsigned long)
 0D80:1EBB       screen::putnumb(unsigned long,char)
 0D80:1F54 idle  screen::putbignumb(long)
 0D80:1FE5 idle  screen::putbignumb(long,char)
 0D80:2086 idle  screen::rectangle(rect far&,int)
 0D80:20E0       screen::rectangle(int,int,int,int,int)
 0D80:2229 idle  screen::set320x240mode()
 0D80:22B8       screen::setcolorregister(unsigned char,char,char,char)
 0D80:22EB       screen::textmode()
 0D80:230D idle  screen::update(rect)
 0D80:23C1       screen::update()
 0D80:2466       screen::wait()
 0D80:249D idle  _setlocate(screen far&,int)
 0D80:24E2 idle  _setcolor(screen far&,int)
 0D80:2511 idle  setcolor(int)
 0D80:2547       cur(int,int)
 0D80:2583 idle  font::font(int)
 0D80:26EC idle  font::~font()
 0D80:2737 idle  font::show(int,int,int,char)
 0D80:27EC       screen::flip_double_buffer()
 0D80:28DB       ostream::write(const unsigned char far*,int)
 0D80:2911       istream::read(unsigned char far*,int)
 0D80:2947       timer::gettotalcounter()
 0D80:2972       abs(int)
 0D80:2999       screen::setcolor(char)
 0D80:29C0       rect::rect(int,int,int,int)
 0D80:2A25       rect::rect()
 0D80:2A63       manipmy::manipmy(screen far&(far*)(screen far&,int),int)
 102B:0006       msgtextminmaxvalue(char far*,int,int,int,int)
 102B:02C5       msgtext(char far*,char far*,char far*,int,int)
 102B:057F       msg(char far*,int)
 102B:06C3       fatal(char far*)
 102B:072D       debug(char far*)
 10A2:0007 idle  mouse::draw()
 10A2:006C       mouse::mouse(screen far*)
 10A2:00E3       mouse::~mouse()
 10A2:011C idle  mouse::read()
 10A2:0167 idle  mouse::set_horz_movement(int,int)
 10A2:019C idle  mouse::set_vert_movement(int,int)
 10A2:01D1 idle  mouse::set()
 10C2:000E idle  int08h_new1()
 10C2:0051 idle  timer::timer(float)
 10C2:00D6       timer::restart(float)
 10C2:0178       getrealtimeclock(unsigned char far&,unsigned char far&,unsigned char far&)
 10C2:0211 idle  timer::~timer()
 1100:000E idle  moveobj::moveobj()
 1100:00A2       moveobj::moveobj(sprite far*)
 1100:0143       moveobj::~moveobj()
 1100:01CE idle  moveobj::show()
 1100:025A idle  moveobj::showall()
 1100:02B8 idle  moveobj::animate()
 1100:0462 idle  movetxt::animate()
 1100:05D5 idle  moveobj::delall()
 1100:065C       moveobj::del(moveobj far*)
 1100:07AC       moveobj::new(moveobj far*,int)
 1100:08A2 idle  moveobj::renewrect()
 1100:093C       moveobj::renewxy()
 1100:09D9 idle  moveobj::set(float,float,float,float,float,float)
 1100:0A56 idle  moveobj::operator [](int)
 1100:0B0E idle  moveobj::operator +=(moveobj far&)
 1100:0B58       anim::anim()
 1100:0BE4       anim::renewframe()
 1100:0D04       anim::animate()
 1100:0E30 idle  mindobj::operator +=(mindobj far&)
 1100:0E59 idle  mindobj::add(mindobj far&,int,mindobj::going far*,mindobj::framing far*,...
 1100:1031 idle  mindobj::mindobj()
 1100:1095 idle  mindobj::~mindobj()
 1100:116E idle  mindobj::renewframe()
 1100:1220 idle  mindobj::renewxy()
 1100:1401 idle  mindobj::del(moveobj far*)
 1100:1457 idle  mindobj::show()
 1100:1538 idle  movetxt::show()
 1100:15E2       anim::show()
 1100:1704       moveobj::del(int)
 1100:1746       anim::operator [](int)
 1100:1776       mindobj::operator [](int)
 1100:17A6       mindobj::
 1100:17BE       moveobj::destroy(int)
 1100:17DB       anim::renewtimelive()
 1100:1822       anim::
 1100:183A       moveobj::
 1100:1852       moveobj::renewframe()
 1100:186F       moveobj::renewtimelive()
 1289:0001 idle  swap(int far&,int far&)
 1289:003D idle  determinesystem(int,int,int,int,int far&,int far&)
 1289:011E idle  determinesystem(int,int,int,int)
 1289:01E9       determinesystem(rect far&,rect far&,rect far&)
 1289:0281 idle  checkunionrects(rect far&,rect far&)
 12C9:000E       playnote(int,int,int)
 12C9:0058       sound::sound()
 12C9:014E idle  sound::soundstatus()
 12C9:0194 idle  sound::sndplay(sndstruct far&)
 12C9:0206       sound::play(int,int)
 12C9:02C6 idle  sound::stop()
 12C9:0306       sound::load(char far*,int)
 12C9:0512 idle  sound::unload(int)
 12C9:0573       sound::~sound()
 1328:0006 idle  sprite::create(sprite::image far&)
 1328:00F3       sprite::sprite(screen far*,int)
 1328:01C9       sprite::~sprite()
 1328:0281 idle  sprite::find(int)
 1328:02D7 idle  sprite::find_free()
 1328:0339       sprite::getimage(int)
 1328:0391 idle  sprite::load(char far*,unsigned long,sprite::image)
 1328:04DF       sprite::loadspriteform(char far*,sprite::image far&)
 1328:063B       sprite::modifycolor(int,char)
 1328:06D9       sprite::scroll(int,int,int)
 1328:0839 idle  sprite::showdirect(int,int,int,int)
 1328:08E9       sprite::show(int,int,int,int)
 1328:0914 idle  sprite::delete(int)
 1328:09D5 idle  sprite::image::write(int,int,unsigned char)
 1328:0A40       sprite::image::read(int,int)
 13D2:000C       _LOADDIGPAK
 13D2:0066       _INITDIGPAK
 13D2:009C       _DEINITDIGPAK
 13D2:00D9       _UNLOADDIGPAK
 13D2:0130       _LOADMIDPAK
 13D2:020D       _INITMIDPAK
 13D2:0266       _DEINITMIDPAK
 13D2:02A8       _UNLOADMIDPAK
 1404:0007       _MEMALLOC
 1404:003F       _MEMFREE
 140A:000A       load_sprites()
 140A:053C idle  findzaglavie(long,int)
 140A:0627 idle  fun2(char far*,char far*,int,int far*,int far*,int far*,char,int far*)
 140A:078A       tolowerregister(unsigned char far*)
 140A:07D9       open_text_book()
 140A:082F       drawrunline(int)
 140A:14CD       tetris::menu()
 140A:19A3       randomize()
 140A:19D3       operator <<(screen far&,manipmy far&)
 15AA:000E       tetris::newfiguregenerate()
 15AA:0188       tetris::nextfigureshow()
 15AA:0434       tetris::tetris()
 15AA:05F6 idle  tetris::generatefigurecolor()
 15AA:0645       generate_picture()
 1629:0002       tetrishelp()
 1631:000E       fun_show_debug()
 1631:0102       fun_delay()
 1631:029E       fun_show_cursor()
 1631:0341       fun_code13()
 1631:03B2       fun_pad0()
 1631:0445       fun_code8()
 1631:04FF idle  fun_pad9()
 1631:055F       fun_pad6()
 1631:06A3       fun_key_m_key_0()
 1631:072B       fun_key_m_key_1()
 1631:07B3       fun_key_m_key_3()
 1631:083B       fun_key_m_key_2()
 1631:08C3       fun_key_m_key_4()
 1631:094B       fun_key_pad9()
 1631:09AB       fun_key_f1()
 16D4:000C idle  videoeffect()
 16D4:00DD       colorchange()
 16D4:016A idle  find_zaglav()
 16D4:018B idle  find(char)
 16D4:06E8       read_word()
 16D4:0810       newline()
 16D4:08B7 idle  printzaglav()
 16D4:09A0       step_back()
 16D4:0A79       texteditor()
 16D4:1720 idle  min(int,int)
 16D4:1751 idle  check(char far*,char far*)
 16D4:17EB idle  checkword(char far*)
 185E:000E idle  load_sounds()
 185E:0051 idle  redefine_keys()
 185E:03E9 idle  tetris::~tetris()
 185E:0446 idle  tetris::game()
 185E:1806       music(int,int)
 185E:1865 idle  load_music()
 185E:18D7 idle  programmeditor()
 185E:1A9E idle  drawpalette()
 185E:1BA9       _MAIN
 185E:2609       movefigure::movefigure(sprite far*)
 185E:267B       moveobj::makesupervisor(sprite far*)
 185E:26AD       anim::operator +=(anim far&)
 185E:26E0       ios::eof()
 185E:2709       istream::getline(unsigned char far*,int,char)
 185E:2743       rect::set(int,int,int,int)
 185E:2787       anim::anim(sprite far*)
 185E:27E7       movefigure::
 185E:2803       movefigure::show()
 185E:284E       movefigure::~movefigure()
 1AE8:0306       E087_ENTRY
 1AE8:03C6       E087_SHORTCUT
 1AE8:0430       E087_TRAP
 1B45:0502 idle  _ISPLAY1
 1B45:0504 idle  _ISPLAY2
 1B45:0506 idle  _SND1
 1B45:0512 idle  _SND2
 1B45:0530 idle  _REAL_REC
 1B45:0532 idle  _RECORD
 1B45:0B32 idle  _BASEFREQCHANGE
 1B45:0B33 idle  _MODE_PLAY
 1B45:0B35 idle  _MODE_REC
 1B45:0B37 idle  _PLAY_COUNTER
 1B45:0B39 idle  _FUNCTIONAL_KEYS
 1B45:0BC1 idle  _TABLE0
 1B45:0F81 idle  _TABLE1
 1B45:1341 idle  _TABLE2
 1B45:1705 idle  _OLD_KEYS
 1D19:000A idle  _PI
 1D24:000C idle  _MODE
 1D24:000E idle  _MODE_PAUSE
 1D24:0010 idle  _MODE_READY_PAUSE
 1D96:0004       _SPRITEFIGURE
 1D96:0014       _SPRITEBOX
 1D98:0004 idle  _DIGITS
 1D98:002C idle  _SYMBOL_DVOE
 1D98:0041 idle  _SYMBOL_POINT
 1D98:0056 idle  _SYMBOL_MINUS
 1D98:006B idle  _SCALEX_TEXT
 1D98:006D idle  _SCALEY_TEXT
 1DBA:000E       _KEYB
 1DF1:0000 idle  keyboard::countobject
 1DF1:0002 idle  keyboard::this
 1DF2:0000       keyboard::key
 1E0E:0000 idle  _FONT
 1E0E:0005       _FONT8X8
 1E0E:0805       _BIGSYMSCALE
 1E0E:0807 idle  _CRTCPARMS
 1E0E:081B       _WAIT_FLAG1
 1E0E:081F       _WAIT_FLAG2
 1E0E:0823 idle  _MANIP
 1EA8:0000 idle  screen::countobjects
 1EA8:0002 idle  screen::doublebuffer
 1EA8:0006 idle  screen::constructor_run
 1EA8:0007 idle  screen::videomemory
 1EB0:0000       _TIMER
 1EB0:000A idle  _INT08H_OLD
 1EBA:0000 idle  timer::countobjects
 1EBA:0002 idle  timer::max_freq
 1EBA:0006 idle  timer::min_freq
 1EFA:0000 idle  moveobj::supervisorcounter
 1EFA:0002 idle  moveobj::windowx
 1EFA:0004 idle  moveobj::windowy
 1EFA:0006 idle  moveobj::speed_unit
 1EFA:000A idle  moveobj::totalanimatedobject
 1EFA:000C       moveobj::lim
 1F01:0010 idle  _BUF
 1F01:1398 idle  _ISPLAY
 2053:0000 idle  sound::countobject
 2087:0000 idle  sprite::countobject
 2089:0000       _RUNLX
 2089:0004       _SHOW_TASK_LIST
 2089:0006       _STEPRUNLX
 2089:0008       _TEXT_LOOP
 2089:000A idle  _STR_FIND
 2089:001E idle  _END_OF_FILE
 2089:0048 idle  _FILE_BUF
 2089:008E       _IFL
 2089:00FE       _FILESIZE
 2089:0102 idle  _METHOD_NEXT
 2089:0104 idle  _METHOD_BACK
 2089:0106 idle  _RUS1
 2089:0127 idle  _RUS2
 2089:0148 idle  _RUS_SIZE
 2089:014A idle  _NEED_FIND
 2089:0311 idle  _RUNLINE3
 2159:000C idle  _NEXTFIGURELIST
 21B5:0000       _CR
 21B5:0002       _WORD_COUNT
 21B5:0004       _SYMBOLCOUNT
 21B5:0006       _PAUSE
 21B5:000A idle  _SHOW_DEBUG_TIME
 21B5:000C       _SHOW_DEBUG
 21B5:000E idle  _BIG
 21B5:002F idle  _BIG_LEN
 21B5:0030       _MODE_PRINTER
 21B5:0031       _MODE_RANDOMCHANGECHAPTER
 21B5:0032       _CODE13
 21B5:0033       _WORD
 21B5:0073       _WORD_LEN
 21B5:0074 idle  _START_CHAPTER_POSITION
 21B5:0078       _ZAGLAV
 21B5:0099       _CURSOR_LEN
 21B5:009B       _CURSOR_HEI
 21B5:00E6 idle  _WORDS_GOD
 21B5:016E idle  _WORDS
 21B5:021E idle  _WORDS_IISUS
 2216:0006       _SETTINGS
 2216:003D idle  _MAXSCORE
 2216:0041 idle  _BASESPEED
 2216:0045 idle  _BASEACCELERAT
 2216:0049       _CURRENT_MUSIC
 2216:004B       _RECTABLE
 2216:0258 idle  _SOUNDVOLUME
 2216:025A idle  _KEYDOWNPRESS
 2216:025C       _TETRIS
 2216:043A       _SCR
 2216:0444 idle  _MOUSE
 2216:0455       _SOUND
 2216:05C0       _SPRITE
 2216:05D0       _BACKGROUND
 2216:05E0 idle  _MOVEFIG
 2216:096C idle  _SONG
 2216:0994 idle  _SONG_LEN
 22D4:0006 idle  __HUGE_FLT
 22D4:000A       __HUGE_DBLE
 22D4:0012 idle  __HUGE_LDBLE
 22D4:001C idle  __INDEFINITE
 22D4:0020 idle  __TINY_LDBLE
 22D6:000A       __MATHWHY
 22F3:0000       filebuf::openprot
 22F4:0000 idle  ios::basefield
 22F4:0004 idle  ios::adjustfield
 22F4:0008 idle  ios::floatfield
 22F4:000C idle  ios::nextbit
 22F4:0010 idle  ios::usercount
 22F4:0012 idle  ios::stdioflush
 22F6:0000 idle  DATASEG@
 22F6:005B idle  __INT0VECTOR
 22F6:005F idle  __INT4VECTOR
 22F6:0063 idle  __INT5VECTOR
 22F6:0067 idle  __INT6VECTOR
 22F6:006B idle  __C0ARGC
 22F6:006D idle  __C0ARGV
 22F6:0071       __C0ENVIRON
 22F6:0075       __ENVLNG
 22F6:0077       __ENVSEG
 22F6:0079       __ENVSIZE
 22F6:007B       __PSP
 22F6:007D idle  __OSVERSION
 22F6:007D idle  __OSMAJOR
 22F6:007D       __VERSION
 22F6:007E idle  __OSMINOR
 22F6:007F       _ERRNO
 22F6:0081 idle  __STARTTIME
 22F6:0085       __HEAPBASE
 22F6:0089       __BRKLVL
 22F6:008D       __HEAPTOP
 22F6:00A0       __8087
 22F6:00B0       __PROTECTED
 22F6:00B1       __LDT
 22F6:00B4       __DEFAULT87
 22F6:00B6       __ATEXITCNT
 22F6:00B8       __ATEXITTBL
 22F6:0138       __CTYPE
 22F6:023A       __EXITBUF
 22F6:023E       __EXITFOPEN
 22F6:0242 idle  __EXITOPEN
 22F6:0246       __STREAMS
 22F6:03D6       __NFILE
 22F6:03D8       __OPENFD
 22F6:0400       __FMODE
 22F6:0402       __NOTUMASK
 22F6:0404       __FPSTKLEN
 22F6:0406       __DOSERRNO
 22F6:0408 idle  __DOSERRORTOSV
 22F6:0478       __NEW_HANDLER
 22F6:0480       ___SIGNALPTR
 22F6:0484       __STKLEN
 22F6:04EE       __WSCROLL
 22F6:04F0       __VIDEO
 22F6:04FF       _DIRECTVIDEO
 22F6:053C       __CFLAG
 22F6:053D       __CCHAR
 22F6:053E       _ENVIRON
 22F6:0556 idle  __MONTHDAY
 22F6:0570 idle  _TZNAME
 22F6:0578       _TIMEZONE
 22F6:057C       _DAYLIGHT
 22F6:0592       __REALCVTVECTOR
 22F6:0596 idle  __SCANTODVECTOR
 2358:0000       __EMU

Program entry point at 0000:0000

